
rtarget:     file format elf64-x86-64


Disassembly of section .init:

0000000000401000 <_init>:
  401000:	f3 0f 1e fa          	endbr64 
  401004:	48 83 ec 08          	sub    $0x8,%rsp
  401008:	48 8b 05 e9 5f 00 00 	mov    0x5fe9(%rip),%rax        # 406ff8 <__gmon_start__>
  40100f:	48 85 c0             	test   %rax,%rax
  401012:	74 02                	je     401016 <_init+0x16>
  401014:	ff d0                	callq  *%rax
  401016:	48 83 c4 08          	add    $0x8,%rsp
  40101a:	c3                   	retq   

Disassembly of section .plt:

0000000000401020 <.plt>:
  401020:	ff 35 e2 5f 00 00    	pushq  0x5fe2(%rip)        # 407008 <_GLOBAL_OFFSET_TABLE_+0x8>
  401026:	f2 ff 25 e3 5f 00 00 	bnd jmpq *0x5fe3(%rip)        # 407010 <_GLOBAL_OFFSET_TABLE_+0x10>
  40102d:	0f 1f 00             	nopl   (%rax)
  401030:	f3 0f 1e fa          	endbr64 
  401034:	68 00 00 00 00       	pushq  $0x0
  401039:	f2 e9 e1 ff ff ff    	bnd jmpq 401020 <.plt>
  40103f:	90                   	nop
  401040:	f3 0f 1e fa          	endbr64 
  401044:	68 01 00 00 00       	pushq  $0x1
  401049:	f2 e9 d1 ff ff ff    	bnd jmpq 401020 <.plt>
  40104f:	90                   	nop
  401050:	f3 0f 1e fa          	endbr64 
  401054:	68 02 00 00 00       	pushq  $0x2
  401059:	f2 e9 c1 ff ff ff    	bnd jmpq 401020 <.plt>
  40105f:	90                   	nop
  401060:	f3 0f 1e fa          	endbr64 
  401064:	68 03 00 00 00       	pushq  $0x3
  401069:	f2 e9 b1 ff ff ff    	bnd jmpq 401020 <.plt>
  40106f:	90                   	nop
  401070:	f3 0f 1e fa          	endbr64 
  401074:	68 04 00 00 00       	pushq  $0x4
  401079:	f2 e9 a1 ff ff ff    	bnd jmpq 401020 <.plt>
  40107f:	90                   	nop
  401080:	f3 0f 1e fa          	endbr64 
  401084:	68 05 00 00 00       	pushq  $0x5
  401089:	f2 e9 91 ff ff ff    	bnd jmpq 401020 <.plt>
  40108f:	90                   	nop
  401090:	f3 0f 1e fa          	endbr64 
  401094:	68 06 00 00 00       	pushq  $0x6
  401099:	f2 e9 81 ff ff ff    	bnd jmpq 401020 <.plt>
  40109f:	90                   	nop
  4010a0:	f3 0f 1e fa          	endbr64 
  4010a4:	68 07 00 00 00       	pushq  $0x7
  4010a9:	f2 e9 71 ff ff ff    	bnd jmpq 401020 <.plt>
  4010af:	90                   	nop
  4010b0:	f3 0f 1e fa          	endbr64 
  4010b4:	68 08 00 00 00       	pushq  $0x8
  4010b9:	f2 e9 61 ff ff ff    	bnd jmpq 401020 <.plt>
  4010bf:	90                   	nop
  4010c0:	f3 0f 1e fa          	endbr64 
  4010c4:	68 09 00 00 00       	pushq  $0x9
  4010c9:	f2 e9 51 ff ff ff    	bnd jmpq 401020 <.plt>
  4010cf:	90                   	nop
  4010d0:	f3 0f 1e fa          	endbr64 
  4010d4:	68 0a 00 00 00       	pushq  $0xa
  4010d9:	f2 e9 41 ff ff ff    	bnd jmpq 401020 <.plt>
  4010df:	90                   	nop
  4010e0:	f3 0f 1e fa          	endbr64 
  4010e4:	68 0b 00 00 00       	pushq  $0xb
  4010e9:	f2 e9 31 ff ff ff    	bnd jmpq 401020 <.plt>
  4010ef:	90                   	nop
  4010f0:	f3 0f 1e fa          	endbr64 
  4010f4:	68 0c 00 00 00       	pushq  $0xc
  4010f9:	f2 e9 21 ff ff ff    	bnd jmpq 401020 <.plt>
  4010ff:	90                   	nop
  401100:	f3 0f 1e fa          	endbr64 
  401104:	68 0d 00 00 00       	pushq  $0xd
  401109:	f2 e9 11 ff ff ff    	bnd jmpq 401020 <.plt>
  40110f:	90                   	nop
  401110:	f3 0f 1e fa          	endbr64 
  401114:	68 0e 00 00 00       	pushq  $0xe
  401119:	f2 e9 01 ff ff ff    	bnd jmpq 401020 <.plt>
  40111f:	90                   	nop
  401120:	f3 0f 1e fa          	endbr64 
  401124:	68 0f 00 00 00       	pushq  $0xf
  401129:	f2 e9 f1 fe ff ff    	bnd jmpq 401020 <.plt>
  40112f:	90                   	nop
  401130:	f3 0f 1e fa          	endbr64 
  401134:	68 10 00 00 00       	pushq  $0x10
  401139:	f2 e9 e1 fe ff ff    	bnd jmpq 401020 <.plt>
  40113f:	90                   	nop
  401140:	f3 0f 1e fa          	endbr64 
  401144:	68 11 00 00 00       	pushq  $0x11
  401149:	f2 e9 d1 fe ff ff    	bnd jmpq 401020 <.plt>
  40114f:	90                   	nop
  401150:	f3 0f 1e fa          	endbr64 
  401154:	68 12 00 00 00       	pushq  $0x12
  401159:	f2 e9 c1 fe ff ff    	bnd jmpq 401020 <.plt>
  40115f:	90                   	nop
  401160:	f3 0f 1e fa          	endbr64 
  401164:	68 13 00 00 00       	pushq  $0x13
  401169:	f2 e9 b1 fe ff ff    	bnd jmpq 401020 <.plt>
  40116f:	90                   	nop
  401170:	f3 0f 1e fa          	endbr64 
  401174:	68 14 00 00 00       	pushq  $0x14
  401179:	f2 e9 a1 fe ff ff    	bnd jmpq 401020 <.plt>
  40117f:	90                   	nop
  401180:	f3 0f 1e fa          	endbr64 
  401184:	68 15 00 00 00       	pushq  $0x15
  401189:	f2 e9 91 fe ff ff    	bnd jmpq 401020 <.plt>
  40118f:	90                   	nop
  401190:	f3 0f 1e fa          	endbr64 
  401194:	68 16 00 00 00       	pushq  $0x16
  401199:	f2 e9 81 fe ff ff    	bnd jmpq 401020 <.plt>
  40119f:	90                   	nop
  4011a0:	f3 0f 1e fa          	endbr64 
  4011a4:	68 17 00 00 00       	pushq  $0x17
  4011a9:	f2 e9 71 fe ff ff    	bnd jmpq 401020 <.plt>
  4011af:	90                   	nop
  4011b0:	f3 0f 1e fa          	endbr64 
  4011b4:	68 18 00 00 00       	pushq  $0x18
  4011b9:	f2 e9 61 fe ff ff    	bnd jmpq 401020 <.plt>
  4011bf:	90                   	nop
  4011c0:	f3 0f 1e fa          	endbr64 
  4011c4:	68 19 00 00 00       	pushq  $0x19
  4011c9:	f2 e9 51 fe ff ff    	bnd jmpq 401020 <.plt>
  4011cf:	90                   	nop
  4011d0:	f3 0f 1e fa          	endbr64 
  4011d4:	68 1a 00 00 00       	pushq  $0x1a
  4011d9:	f2 e9 41 fe ff ff    	bnd jmpq 401020 <.plt>
  4011df:	90                   	nop
  4011e0:	f3 0f 1e fa          	endbr64 
  4011e4:	68 1b 00 00 00       	pushq  $0x1b
  4011e9:	f2 e9 31 fe ff ff    	bnd jmpq 401020 <.plt>
  4011ef:	90                   	nop
  4011f0:	f3 0f 1e fa          	endbr64 
  4011f4:	68 1c 00 00 00       	pushq  $0x1c
  4011f9:	f2 e9 21 fe ff ff    	bnd jmpq 401020 <.plt>
  4011ff:	90                   	nop
  401200:	f3 0f 1e fa          	endbr64 
  401204:	68 1d 00 00 00       	pushq  $0x1d
  401209:	f2 e9 11 fe ff ff    	bnd jmpq 401020 <.plt>
  40120f:	90                   	nop
  401210:	f3 0f 1e fa          	endbr64 
  401214:	68 1e 00 00 00       	pushq  $0x1e
  401219:	f2 e9 01 fe ff ff    	bnd jmpq 401020 <.plt>
  40121f:	90                   	nop
  401220:	f3 0f 1e fa          	endbr64 
  401224:	68 1f 00 00 00       	pushq  $0x1f
  401229:	f2 e9 f1 fd ff ff    	bnd jmpq 401020 <.plt>
  40122f:	90                   	nop
  401230:	f3 0f 1e fa          	endbr64 
  401234:	68 20 00 00 00       	pushq  $0x20
  401239:	f2 e9 e1 fd ff ff    	bnd jmpq 401020 <.plt>
  40123f:	90                   	nop
  401240:	f3 0f 1e fa          	endbr64 
  401244:	68 21 00 00 00       	pushq  $0x21
  401249:	f2 e9 d1 fd ff ff    	bnd jmpq 401020 <.plt>
  40124f:	90                   	nop

Disassembly of section .plt.sec:

0000000000401250 <strcasecmp@plt>:
  401250:	f3 0f 1e fa          	endbr64 
  401254:	f2 ff 25 bd 5d 00 00 	bnd jmpq *0x5dbd(%rip)        # 407018 <strcasecmp@GLIBC_2.2.5>
  40125b:	0f 1f 44 00 00       	nopl   0x0(%rax,%rax,1)

0000000000401260 <__errno_location@plt>:
  401260:	f3 0f 1e fa          	endbr64 
  401264:	f2 ff 25 b5 5d 00 00 	bnd jmpq *0x5db5(%rip)        # 407020 <__errno_location@GLIBC_2.2.5>
  40126b:	0f 1f 44 00 00       	nopl   0x0(%rax,%rax,1)

0000000000401270 <srandom@plt>:
  401270:	f3 0f 1e fa          	endbr64 
  401274:	f2 ff 25 ad 5d 00 00 	bnd jmpq *0x5dad(%rip)        # 407028 <srandom@GLIBC_2.2.5>
  40127b:	0f 1f 44 00 00       	nopl   0x0(%rax,%rax,1)

0000000000401280 <strncpy@plt>:
  401280:	f3 0f 1e fa          	endbr64 
  401284:	f2 ff 25 a5 5d 00 00 	bnd jmpq *0x5da5(%rip)        # 407030 <strncpy@GLIBC_2.2.5>
  40128b:	0f 1f 44 00 00       	nopl   0x0(%rax,%rax,1)

0000000000401290 <strncmp@plt>:
  401290:	f3 0f 1e fa          	endbr64 
  401294:	f2 ff 25 9d 5d 00 00 	bnd jmpq *0x5d9d(%rip)        # 407038 <strncmp@GLIBC_2.2.5>
  40129b:	0f 1f 44 00 00       	nopl   0x0(%rax,%rax,1)

00000000004012a0 <strcpy@plt>:
  4012a0:	f3 0f 1e fa          	endbr64 
  4012a4:	f2 ff 25 95 5d 00 00 	bnd jmpq *0x5d95(%rip)        # 407040 <strcpy@GLIBC_2.2.5>
  4012ab:	0f 1f 44 00 00       	nopl   0x0(%rax,%rax,1)

00000000004012b0 <puts@plt>:
  4012b0:	f3 0f 1e fa          	endbr64 
  4012b4:	f2 ff 25 8d 5d 00 00 	bnd jmpq *0x5d8d(%rip)        # 407048 <puts@GLIBC_2.2.5>
  4012bb:	0f 1f 44 00 00       	nopl   0x0(%rax,%rax,1)

00000000004012c0 <write@plt>:
  4012c0:	f3 0f 1e fa          	endbr64 
  4012c4:	f2 ff 25 85 5d 00 00 	bnd jmpq *0x5d85(%rip)        # 407050 <write@GLIBC_2.2.5>
  4012cb:	0f 1f 44 00 00       	nopl   0x0(%rax,%rax,1)

00000000004012d0 <mmap@plt>:
  4012d0:	f3 0f 1e fa          	endbr64 
  4012d4:	f2 ff 25 7d 5d 00 00 	bnd jmpq *0x5d7d(%rip)        # 407058 <mmap@GLIBC_2.2.5>
  4012db:	0f 1f 44 00 00       	nopl   0x0(%rax,%rax,1)

00000000004012e0 <memset@plt>:
  4012e0:	f3 0f 1e fa          	endbr64 
  4012e4:	f2 ff 25 75 5d 00 00 	bnd jmpq *0x5d75(%rip)        # 407060 <memset@GLIBC_2.2.5>
  4012eb:	0f 1f 44 00 00       	nopl   0x0(%rax,%rax,1)

00000000004012f0 <alarm@plt>:
  4012f0:	f3 0f 1e fa          	endbr64 
  4012f4:	f2 ff 25 6d 5d 00 00 	bnd jmpq *0x5d6d(%rip)        # 407068 <alarm@GLIBC_2.2.5>
  4012fb:	0f 1f 44 00 00       	nopl   0x0(%rax,%rax,1)

0000000000401300 <close@plt>:
  401300:	f3 0f 1e fa          	endbr64 
  401304:	f2 ff 25 65 5d 00 00 	bnd jmpq *0x5d65(%rip)        # 407070 <close@GLIBC_2.2.5>
  40130b:	0f 1f 44 00 00       	nopl   0x0(%rax,%rax,1)

0000000000401310 <read@plt>:
  401310:	f3 0f 1e fa          	endbr64 
  401314:	f2 ff 25 5d 5d 00 00 	bnd jmpq *0x5d5d(%rip)        # 407078 <read@GLIBC_2.2.5>
  40131b:	0f 1f 44 00 00       	nopl   0x0(%rax,%rax,1)

0000000000401320 <strcmp@plt>:
  401320:	f3 0f 1e fa          	endbr64 
  401324:	f2 ff 25 55 5d 00 00 	bnd jmpq *0x5d55(%rip)        # 407080 <strcmp@GLIBC_2.2.5>
  40132b:	0f 1f 44 00 00       	nopl   0x0(%rax,%rax,1)

0000000000401330 <signal@plt>:
  401330:	f3 0f 1e fa          	endbr64 
  401334:	f2 ff 25 4d 5d 00 00 	bnd jmpq *0x5d4d(%rip)        # 407088 <signal@GLIBC_2.2.5>
  40133b:	0f 1f 44 00 00       	nopl   0x0(%rax,%rax,1)

0000000000401340 <gethostbyname@plt>:
  401340:	f3 0f 1e fa          	endbr64 
  401344:	f2 ff 25 45 5d 00 00 	bnd jmpq *0x5d45(%rip)        # 407090 <gethostbyname@GLIBC_2.2.5>
  40134b:	0f 1f 44 00 00       	nopl   0x0(%rax,%rax,1)

0000000000401350 <__memmove_chk@plt>:
  401350:	f3 0f 1e fa          	endbr64 
  401354:	f2 ff 25 3d 5d 00 00 	bnd jmpq *0x5d3d(%rip)        # 407098 <__memmove_chk@GLIBC_2.3.4>
  40135b:	0f 1f 44 00 00       	nopl   0x0(%rax,%rax,1)

0000000000401360 <strtol@plt>:
  401360:	f3 0f 1e fa          	endbr64 
  401364:	f2 ff 25 35 5d 00 00 	bnd jmpq *0x5d35(%rip)        # 4070a0 <strtol@GLIBC_2.2.5>
  40136b:	0f 1f 44 00 00       	nopl   0x0(%rax,%rax,1)

0000000000401370 <memcpy@plt>:
  401370:	f3 0f 1e fa          	endbr64 
  401374:	f2 ff 25 2d 5d 00 00 	bnd jmpq *0x5d2d(%rip)        # 4070a8 <memcpy@GLIBC_2.14>
  40137b:	0f 1f 44 00 00       	nopl   0x0(%rax,%rax,1)

0000000000401380 <time@plt>:
  401380:	f3 0f 1e fa          	endbr64 
  401384:	f2 ff 25 25 5d 00 00 	bnd jmpq *0x5d25(%rip)        # 4070b0 <time@GLIBC_2.2.5>
  40138b:	0f 1f 44 00 00       	nopl   0x0(%rax,%rax,1)

0000000000401390 <random@plt>:
  401390:	f3 0f 1e fa          	endbr64 
  401394:	f2 ff 25 1d 5d 00 00 	bnd jmpq *0x5d1d(%rip)        # 4070b8 <random@GLIBC_2.2.5>
  40139b:	0f 1f 44 00 00       	nopl   0x0(%rax,%rax,1)

00000000004013a0 <__isoc99_sscanf@plt>:
  4013a0:	f3 0f 1e fa          	endbr64 
  4013a4:	f2 ff 25 15 5d 00 00 	bnd jmpq *0x5d15(%rip)        # 4070c0 <__isoc99_sscanf@GLIBC_2.7>
  4013ab:	0f 1f 44 00 00       	nopl   0x0(%rax,%rax,1)

00000000004013b0 <munmap@plt>:
  4013b0:	f3 0f 1e fa          	endbr64 
  4013b4:	f2 ff 25 0d 5d 00 00 	bnd jmpq *0x5d0d(%rip)        # 4070c8 <munmap@GLIBC_2.2.5>
  4013bb:	0f 1f 44 00 00       	nopl   0x0(%rax,%rax,1)

00000000004013c0 <__printf_chk@plt>:
  4013c0:	f3 0f 1e fa          	endbr64 
  4013c4:	f2 ff 25 05 5d 00 00 	bnd jmpq *0x5d05(%rip)        # 4070d0 <__printf_chk@GLIBC_2.3.4>
  4013cb:	0f 1f 44 00 00       	nopl   0x0(%rax,%rax,1)

00000000004013d0 <fopen@plt>:
  4013d0:	f3 0f 1e fa          	endbr64 
  4013d4:	f2 ff 25 fd 5c 00 00 	bnd jmpq *0x5cfd(%rip)        # 4070d8 <fopen@GLIBC_2.2.5>
  4013db:	0f 1f 44 00 00       	nopl   0x0(%rax,%rax,1)

00000000004013e0 <getopt@plt>:
  4013e0:	f3 0f 1e fa          	endbr64 
  4013e4:	f2 ff 25 f5 5c 00 00 	bnd jmpq *0x5cf5(%rip)        # 4070e0 <getopt@GLIBC_2.2.5>
  4013eb:	0f 1f 44 00 00       	nopl   0x0(%rax,%rax,1)

00000000004013f0 <strtoul@plt>:
  4013f0:	f3 0f 1e fa          	endbr64 
  4013f4:	f2 ff 25 ed 5c 00 00 	bnd jmpq *0x5ced(%rip)        # 4070e8 <strtoul@GLIBC_2.2.5>
  4013fb:	0f 1f 44 00 00       	nopl   0x0(%rax,%rax,1)

0000000000401400 <gethostname@plt>:
  401400:	f3 0f 1e fa          	endbr64 
  401404:	f2 ff 25 e5 5c 00 00 	bnd jmpq *0x5ce5(%rip)        # 4070f0 <gethostname@GLIBC_2.2.5>
  40140b:	0f 1f 44 00 00       	nopl   0x0(%rax,%rax,1)

0000000000401410 <exit@plt>:
  401410:	f3 0f 1e fa          	endbr64 
  401414:	f2 ff 25 dd 5c 00 00 	bnd jmpq *0x5cdd(%rip)        # 4070f8 <exit@GLIBC_2.2.5>
  40141b:	0f 1f 44 00 00       	nopl   0x0(%rax,%rax,1)

0000000000401420 <connect@plt>:
  401420:	f3 0f 1e fa          	endbr64 
  401424:	f2 ff 25 d5 5c 00 00 	bnd jmpq *0x5cd5(%rip)        # 407100 <connect@GLIBC_2.2.5>
  40142b:	0f 1f 44 00 00       	nopl   0x0(%rax,%rax,1)

0000000000401430 <__fprintf_chk@plt>:
  401430:	f3 0f 1e fa          	endbr64 
  401434:	f2 ff 25 cd 5c 00 00 	bnd jmpq *0x5ccd(%rip)        # 407108 <__fprintf_chk@GLIBC_2.3.4>
  40143b:	0f 1f 44 00 00       	nopl   0x0(%rax,%rax,1)

0000000000401440 <getc@plt>:
  401440:	f3 0f 1e fa          	endbr64 
  401444:	f2 ff 25 c5 5c 00 00 	bnd jmpq *0x5cc5(%rip)        # 407110 <getc@GLIBC_2.2.5>
  40144b:	0f 1f 44 00 00       	nopl   0x0(%rax,%rax,1)

0000000000401450 <__sprintf_chk@plt>:
  401450:	f3 0f 1e fa          	endbr64 
  401454:	f2 ff 25 bd 5c 00 00 	bnd jmpq *0x5cbd(%rip)        # 407118 <__sprintf_chk@GLIBC_2.3.4>
  40145b:	0f 1f 44 00 00       	nopl   0x0(%rax,%rax,1)

0000000000401460 <socket@plt>:
  401460:	f3 0f 1e fa          	endbr64 
  401464:	f2 ff 25 b5 5c 00 00 	bnd jmpq *0x5cb5(%rip)        # 407120 <socket@GLIBC_2.2.5>
  40146b:	0f 1f 44 00 00       	nopl   0x0(%rax,%rax,1)

Disassembly of section .text:

0000000000401470 <_start>:
  401470:	f3 0f 1e fa          	endbr64 
  401474:	31 ed                	xor    %ebp,%ebp
  401476:	49 89 d1             	mov    %rdx,%r9
  401479:	5e                   	pop    %rsi
  40147a:	48 89 e2             	mov    %rsp,%rdx
  40147d:	48 83 e4 f0          	and    $0xfffffffffffffff0,%rsp
  401481:	50                   	push   %rax
  401482:	54                   	push   %rsp
  401483:	49 c7 c0 b0 39 40 00 	mov    $0x4039b0,%r8
  40148a:	48 c7 c1 40 39 40 00 	mov    $0x403940,%rcx
  401491:	48 c7 c7 99 17 40 00 	mov    $0x401799,%rdi
  401498:	ff 15 52 5b 00 00    	callq  *0x5b52(%rip)        # 406ff0 <__libc_start_main@GLIBC_2.2.5>
  40149e:	f4                   	hlt    
  40149f:	90                   	nop

00000000004014a0 <_dl_relocate_static_pie>:
  4014a0:	f3 0f 1e fa          	endbr64 
  4014a4:	c3                   	retq   
  4014a5:	66 2e 0f 1f 84 00 00 	nopw   %cs:0x0(%rax,%rax,1)
  4014ac:	00 00 00 
  4014af:	90                   	nop

00000000004014b0 <deregister_tm_clones>:
  4014b0:	b8 b0 74 40 00       	mov    $0x4074b0,%eax
  4014b5:	48 3d b0 74 40 00    	cmp    $0x4074b0,%rax
  4014bb:	74 13                	je     4014d0 <deregister_tm_clones+0x20>
  4014bd:	b8 00 00 00 00       	mov    $0x0,%eax
  4014c2:	48 85 c0             	test   %rax,%rax
  4014c5:	74 09                	je     4014d0 <deregister_tm_clones+0x20>
  4014c7:	bf b0 74 40 00       	mov    $0x4074b0,%edi
  4014cc:	ff e0                	jmpq   *%rax
  4014ce:	66 90                	xchg   %ax,%ax
  4014d0:	c3                   	retq   
  4014d1:	66 66 2e 0f 1f 84 00 	data16 nopw %cs:0x0(%rax,%rax,1)
  4014d8:	00 00 00 00 
  4014dc:	0f 1f 40 00          	nopl   0x0(%rax)

00000000004014e0 <register_tm_clones>:
  4014e0:	be b0 74 40 00       	mov    $0x4074b0,%esi
  4014e5:	48 81 ee b0 74 40 00 	sub    $0x4074b0,%rsi
  4014ec:	48 89 f0             	mov    %rsi,%rax
  4014ef:	48 c1 ee 3f          	shr    $0x3f,%rsi
  4014f3:	48 c1 f8 03          	sar    $0x3,%rax
  4014f7:	48 01 c6             	add    %rax,%rsi
  4014fa:	48 d1 fe             	sar    %rsi
  4014fd:	74 11                	je     401510 <register_tm_clones+0x30>
  4014ff:	b8 00 00 00 00       	mov    $0x0,%eax
  401504:	48 85 c0             	test   %rax,%rax
  401507:	74 07                	je     401510 <register_tm_clones+0x30>
  401509:	bf b0 74 40 00       	mov    $0x4074b0,%edi
  40150e:	ff e0                	jmpq   *%rax
  401510:	c3                   	retq   
  401511:	66 66 2e 0f 1f 84 00 	data16 nopw %cs:0x0(%rax,%rax,1)
  401518:	00 00 00 00 
  40151c:	0f 1f 40 00          	nopl   0x0(%rax)

0000000000401520 <__do_global_dtors_aux>:
  401520:	f3 0f 1e fa          	endbr64 
  401524:	80 3d bd 5f 00 00 00 	cmpb   $0x0,0x5fbd(%rip)        # 4074e8 <completed.8060>
  40152b:	75 13                	jne    401540 <__do_global_dtors_aux+0x20>
  40152d:	55                   	push   %rbp
  40152e:	48 89 e5             	mov    %rsp,%rbp
  401531:	e8 7a ff ff ff       	callq  4014b0 <deregister_tm_clones>
  401536:	c6 05 ab 5f 00 00 01 	movb   $0x1,0x5fab(%rip)        # 4074e8 <completed.8060>
  40153d:	5d                   	pop    %rbp
  40153e:	c3                   	retq   
  40153f:	90                   	nop
  401540:	c3                   	retq   
  401541:	66 66 2e 0f 1f 84 00 	data16 nopw %cs:0x0(%rax,%rax,1)
  401548:	00 00 00 00 
  40154c:	0f 1f 40 00          	nopl   0x0(%rax)

0000000000401550 <frame_dummy>:
  401550:	f3 0f 1e fa          	endbr64 
  401554:	eb 8a                	jmp    4014e0 <register_tm_clones>

0000000000401556 <usage>:
  401556:	50                   	push   %rax
  401557:	58                   	pop    %rax
  401558:	48 83 ec 08          	sub    $0x8,%rsp
  40155c:	48 89 fa             	mov    %rdi,%rdx
  40155f:	83 3d c2 5f 00 00 00 	cmpl   $0x0,0x5fc2(%rip)        # 407528 <is_checker>
  401566:	74 50                	je     4015b8 <usage+0x62>
  401568:	48 8d 35 99 2a 00 00 	lea    0x2a99(%rip),%rsi        # 404008 <_IO_stdin_used+0x8>
  40156f:	bf 01 00 00 00       	mov    $0x1,%edi
  401574:	b8 00 00 00 00       	mov    $0x0,%eax
  401579:	e8 42 fe ff ff       	callq  4013c0 <__printf_chk@plt>
  40157e:	48 8d 3d bb 2a 00 00 	lea    0x2abb(%rip),%rdi        # 404040 <_IO_stdin_used+0x40>
  401585:	e8 26 fd ff ff       	callq  4012b0 <puts@plt>
  40158a:	48 8d 3d 3f 2c 00 00 	lea    0x2c3f(%rip),%rdi        # 4041d0 <_IO_stdin_used+0x1d0>
  401591:	e8 1a fd ff ff       	callq  4012b0 <puts@plt>
  401596:	48 8d 3d cb 2a 00 00 	lea    0x2acb(%rip),%rdi        # 404068 <_IO_stdin_used+0x68>
  40159d:	e8 0e fd ff ff       	callq  4012b0 <puts@plt>
  4015a2:	48 8d 3d 41 2c 00 00 	lea    0x2c41(%rip),%rdi        # 4041ea <_IO_stdin_used+0x1ea>
  4015a9:	e8 02 fd ff ff       	callq  4012b0 <puts@plt>
  4015ae:	bf 00 00 00 00       	mov    $0x0,%edi
  4015b3:	e8 58 fe ff ff       	callq  401410 <exit@plt>
  4015b8:	48 8d 35 47 2c 00 00 	lea    0x2c47(%rip),%rsi        # 404206 <_IO_stdin_used+0x206>
  4015bf:	bf 01 00 00 00       	mov    $0x1,%edi
  4015c4:	b8 00 00 00 00       	mov    $0x0,%eax
  4015c9:	e8 f2 fd ff ff       	callq  4013c0 <__printf_chk@plt>
  4015ce:	48 8d 3d bb 2a 00 00 	lea    0x2abb(%rip),%rdi        # 404090 <_IO_stdin_used+0x90>
  4015d5:	e8 d6 fc ff ff       	callq  4012b0 <puts@plt>
  4015da:	48 8d 3d d7 2a 00 00 	lea    0x2ad7(%rip),%rdi        # 4040b8 <_IO_stdin_used+0xb8>
  4015e1:	e8 ca fc ff ff       	callq  4012b0 <puts@plt>
  4015e6:	48 8d 3d 37 2c 00 00 	lea    0x2c37(%rip),%rdi        # 404224 <_IO_stdin_used+0x224>
  4015ed:	e8 be fc ff ff       	callq  4012b0 <puts@plt>
  4015f2:	eb ba                	jmp    4015ae <usage+0x58>

00000000004015f4 <initialize_target>:
  4015f4:	55                   	push   %rbp
  4015f5:	53                   	push   %rbx
  4015f6:	48 81 ec 00 10 00 00 	sub    $0x1000,%rsp
  4015fd:	48 83 0c 24 00       	orq    $0x0,(%rsp)
  401602:	48 81 ec 00 10 00 00 	sub    $0x1000,%rsp
  401609:	48 83 0c 24 00       	orq    $0x0,(%rsp)
  40160e:	48 81 ec 18 01 00 00 	sub    $0x118,%rsp
  401615:	89 f5                	mov    %esi,%ebp
  401617:	64 48 8b 04 25 28 00 	mov    %fs:0x28,%rax
  40161e:	00 00 
  401620:	48 89 84 24 08 21 00 	mov    %rax,0x2108(%rsp)
  401627:	00 
  401628:	31 c0                	xor    %eax,%eax
  40162a:	89 3d e8 5e 00 00    	mov    %edi,0x5ee8(%rip)        # 407518 <check_level>
  401630:	8b 3d 1a 5b 00 00    	mov    0x5b1a(%rip),%edi        # 407150 <target_id>
  401636:	e8 d7 22 00 00       	callq  403912 <gencookie>
  40163b:	89 c7                	mov    %eax,%edi
  40163d:	89 05 e1 5e 00 00    	mov    %eax,0x5ee1(%rip)        # 407524 <cookie>
  401643:	e8 ca 22 00 00       	callq  403912 <gencookie>
  401648:	89 05 d2 5e 00 00    	mov    %eax,0x5ed2(%rip)        # 407520 <authkey>
  40164e:	8b 05 fc 5a 00 00    	mov    0x5afc(%rip),%eax        # 407150 <target_id>
  401654:	8d 78 01             	lea    0x1(%rax),%edi
  401657:	e8 14 fc ff ff       	callq  401270 <srandom@plt>
  40165c:	e8 2f fd ff ff       	callq  401390 <random@plt>
  401661:	48 89 c7             	mov    %rax,%rdi
  401664:	e8 9b 03 00 00       	callq  401a04 <scramble>
  401669:	89 c3                	mov    %eax,%ebx
  40166b:	85 ed                	test   %ebp,%ebp
  40166d:	75 54                	jne    4016c3 <initialize_target+0xcf>
  40166f:	b8 00 00 00 00       	mov    $0x0,%eax
  401674:	01 d8                	add    %ebx,%eax
  401676:	0f b7 c0             	movzwl %ax,%eax
  401679:	8d 04 c5 00 01 00 00 	lea    0x100(,%rax,8),%eax
  401680:	89 c0                	mov    %eax,%eax
  401682:	48 89 05 1f 5e 00 00 	mov    %rax,0x5e1f(%rip)        # 4074a8 <buf_offset>
  401689:	c6 05 b8 6a 00 00 72 	movb   $0x72,0x6ab8(%rip)        # 408148 <target_prefix>
  401690:	83 3d 09 5e 00 00 00 	cmpl   $0x0,0x5e09(%rip)        # 4074a0 <notify>
  401697:	74 09                	je     4016a2 <initialize_target+0xae>
  401699:	83 3d 88 5e 00 00 00 	cmpl   $0x0,0x5e88(%rip)        # 407528 <is_checker>
  4016a0:	74 3a                	je     4016dc <initialize_target+0xe8>
  4016a2:	48 8b 84 24 08 21 00 	mov    0x2108(%rsp),%rax
  4016a9:	00 
  4016aa:	64 48 33 04 25 28 00 	xor    %fs:0x28,%rax
  4016b1:	00 00 
  4016b3:	0f 85 db 00 00 00    	jne    401794 <initialize_target+0x1a0>
  4016b9:	48 81 c4 18 21 00 00 	add    $0x2118,%rsp
  4016c0:	5b                   	pop    %rbx
  4016c1:	5d                   	pop    %rbp
  4016c2:	c3                   	retq   
  4016c3:	bf 00 00 00 00       	mov    $0x0,%edi
  4016c8:	e8 b3 fc ff ff       	callq  401380 <time@plt>
  4016cd:	48 89 c7             	mov    %rax,%rdi
  4016d0:	e8 9b fb ff ff       	callq  401270 <srandom@plt>
  4016d5:	e8 b6 fc ff ff       	callq  401390 <random@plt>
  4016da:	eb 98                	jmp    401674 <initialize_target+0x80>
  4016dc:	48 89 e7             	mov    %rsp,%rdi
  4016df:	be 00 01 00 00       	mov    $0x100,%esi
  4016e4:	e8 17 fd ff ff       	callq  401400 <gethostname@plt>
  4016e9:	89 c5                	mov    %eax,%ebp
  4016eb:	85 c0                	test   %eax,%eax
  4016ed:	75 26                	jne    401715 <initialize_target+0x121>
  4016ef:	89 c3                	mov    %eax,%ebx
  4016f1:	48 63 c3             	movslq %ebx,%rax
  4016f4:	48 8d 15 85 5a 00 00 	lea    0x5a85(%rip),%rdx        # 407180 <host_table>
  4016fb:	48 8b 3c c2          	mov    (%rdx,%rax,8),%rdi
  4016ff:	48 85 ff             	test   %rdi,%rdi
  401702:	74 2c                	je     401730 <initialize_target+0x13c>
  401704:	48 89 e6             	mov    %rsp,%rsi
  401707:	e8 44 fb ff ff       	callq  401250 <strcasecmp@plt>
  40170c:	85 c0                	test   %eax,%eax
  40170e:	74 1b                	je     40172b <initialize_target+0x137>
  401710:	83 c3 01             	add    $0x1,%ebx
  401713:	eb dc                	jmp    4016f1 <initialize_target+0xfd>
  401715:	48 8d 3d cc 29 00 00 	lea    0x29cc(%rip),%rdi        # 4040e8 <_IO_stdin_used+0xe8>
  40171c:	e8 8f fb ff ff       	callq  4012b0 <puts@plt>
  401721:	bf 08 00 00 00       	mov    $0x8,%edi
  401726:	e8 e5 fc ff ff       	callq  401410 <exit@plt>
  40172b:	bd 01 00 00 00       	mov    $0x1,%ebp
  401730:	85 ed                	test   %ebp,%ebp
  401732:	74 3d                	je     401771 <initialize_target+0x17d>
  401734:	48 8d bc 24 00 01 00 	lea    0x100(%rsp),%rdi
  40173b:	00 
  40173c:	e8 16 1f 00 00       	callq  403657 <init_driver>
  401741:	85 c0                	test   %eax,%eax
  401743:	0f 89 59 ff ff ff    	jns    4016a2 <initialize_target+0xae>
  401749:	48 8d 94 24 00 01 00 	lea    0x100(%rsp),%rdx
  401750:	00 
  401751:	48 8d 35 08 2a 00 00 	lea    0x2a08(%rip),%rsi        # 404160 <_IO_stdin_used+0x160>
  401758:	bf 01 00 00 00       	mov    $0x1,%edi
  40175d:	b8 00 00 00 00       	mov    $0x0,%eax
  401762:	e8 59 fc ff ff       	callq  4013c0 <__printf_chk@plt>
  401767:	bf 08 00 00 00       	mov    $0x8,%edi
  40176c:	e8 9f fc ff ff       	callq  401410 <exit@plt>
  401771:	48 89 e2             	mov    %rsp,%rdx
  401774:	48 8d 35 a5 29 00 00 	lea    0x29a5(%rip),%rsi        # 404120 <_IO_stdin_used+0x120>
  40177b:	bf 01 00 00 00       	mov    $0x1,%edi
  401780:	b8 00 00 00 00       	mov    $0x0,%eax
  401785:	e8 36 fc ff ff       	callq  4013c0 <__printf_chk@plt>
  40178a:	bf 08 00 00 00       	mov    $0x8,%edi
  40178f:	e8 7c fc ff ff       	callq  401410 <exit@plt>
  401794:	e8 d6 11 00 00       	callq  40296f <__stack_chk_fail>

0000000000401799 <main>:
  401799:	f3 0f 1e fa          	endbr64 
  40179d:	41 56                	push   %r14
  40179f:	41 55                	push   %r13
  4017a1:	41 54                	push   %r12
  4017a3:	55                   	push   %rbp
  4017a4:	53                   	push   %rbx
  4017a5:	48 83 ec 60          	sub    $0x60,%rsp
  4017a9:	89 fd                	mov    %edi,%ebp
  4017ab:	48 89 f3             	mov    %rsi,%rbx
  4017ae:	64 48 8b 04 25 28 00 	mov    %fs:0x28,%rax
  4017b5:	00 00 
  4017b7:	48 89 44 24 58       	mov    %rax,0x58(%rsp)
  4017bc:	31 c0                	xor    %eax,%eax
  4017be:	48 b8 53 70 69 72 69 	movabs $0x6465746972697053,%rax
  4017c5:	74 65 64 
  4017c8:	48 89 04 24          	mov    %rax,(%rsp)
  4017cc:	c7 44 24 08 41 77 61 	movl   $0x79617741,0x8(%rsp)
  4017d3:	79 
  4017d4:	66 c7 44 24 0c 43 4e 	movw   $0x4e43,0xc(%rsp)
  4017db:	c6 44 24 0e 00       	movb   $0x0,0xe(%rsp)
  4017e0:	48 c7 c6 5e 28 40 00 	mov    $0x40285e,%rsi
  4017e7:	bf 0b 00 00 00       	mov    $0xb,%edi
  4017ec:	e8 3f fb ff ff       	callq  401330 <signal@plt>
  4017f1:	48 c7 c6 04 28 40 00 	mov    $0x402804,%rsi
  4017f8:	bf 07 00 00 00       	mov    $0x7,%edi
  4017fd:	e8 2e fb ff ff       	callq  401330 <signal@plt>
  401802:	48 c7 c6 b8 28 40 00 	mov    $0x4028b8,%rsi
  401809:	bf 04 00 00 00       	mov    $0x4,%edi
  40180e:	e8 1d fb ff ff       	callq  401330 <signal@plt>
  401813:	83 3d 0e 5d 00 00 00 	cmpl   $0x0,0x5d0e(%rip)        # 407528 <is_checker>
  40181a:	75 26                	jne    401842 <main+0xa9>
  40181c:	4c 8d 25 24 2a 00 00 	lea    0x2a24(%rip),%r12        # 404247 <_IO_stdin_used+0x247>
  401823:	48 8b 05 96 5c 00 00 	mov    0x5c96(%rip),%rax        # 4074c0 <stdin@@GLIBC_2.2.5>
  40182a:	48 89 05 df 5c 00 00 	mov    %rax,0x5cdf(%rip)        # 407510 <infile>
  401831:	41 bd 00 00 00 00    	mov    $0x0,%r13d
  401837:	41 be 00 00 00 00    	mov    $0x0,%r14d
  40183d:	e9 8d 00 00 00       	jmpq   4018cf <main+0x136>
  401842:	48 c7 c6 12 29 40 00 	mov    $0x402912,%rsi
  401849:	bf 0e 00 00 00       	mov    $0xe,%edi
  40184e:	e8 dd fa ff ff       	callq  401330 <signal@plt>
  401853:	bf 02 00 00 00       	mov    $0x2,%edi
  401858:	e8 93 fa ff ff       	callq  4012f0 <alarm@plt>
  40185d:	4c 8d 25 d9 29 00 00 	lea    0x29d9(%rip),%r12        # 40423d <_IO_stdin_used+0x23d>
  401864:	eb bd                	jmp    401823 <main+0x8a>
  401866:	48 8b 3b             	mov    (%rbx),%rdi
  401869:	e8 e8 fc ff ff       	callq  401556 <usage>
  40186e:	48 8d 35 9f 2a 00 00 	lea    0x2a9f(%rip),%rsi        # 404314 <_IO_stdin_used+0x314>
  401875:	48 8b 3d 4c 5c 00 00 	mov    0x5c4c(%rip),%rdi        # 4074c8 <optarg@@GLIBC_2.2.5>
  40187c:	e8 4f fb ff ff       	callq  4013d0 <fopen@plt>
  401881:	48 89 05 88 5c 00 00 	mov    %rax,0x5c88(%rip)        # 407510 <infile>
  401888:	48 85 c0             	test   %rax,%rax
  40188b:	75 42                	jne    4018cf <main+0x136>
  40188d:	48 8b 0d 34 5c 00 00 	mov    0x5c34(%rip),%rcx        # 4074c8 <optarg@@GLIBC_2.2.5>
  401894:	48 8d 15 b1 29 00 00 	lea    0x29b1(%rip),%rdx        # 40424c <_IO_stdin_used+0x24c>
  40189b:	be 01 00 00 00       	mov    $0x1,%esi
  4018a0:	48 8b 3d 39 5c 00 00 	mov    0x5c39(%rip),%rdi        # 4074e0 <stderr@@GLIBC_2.2.5>
  4018a7:	e8 84 fb ff ff       	callq  401430 <__fprintf_chk@plt>
  4018ac:	b8 01 00 00 00       	mov    $0x1,%eax
  4018b1:	e9 2c 01 00 00       	jmpq   4019e2 <main+0x249>
  4018b6:	ba 10 00 00 00       	mov    $0x10,%edx
  4018bb:	be 00 00 00 00       	mov    $0x0,%esi
  4018c0:	48 8b 3d 01 5c 00 00 	mov    0x5c01(%rip),%rdi        # 4074c8 <optarg@@GLIBC_2.2.5>
  4018c7:	e8 24 fb ff ff       	callq  4013f0 <strtoul@plt>
  4018cc:	41 89 c6             	mov    %eax,%r14d
  4018cf:	4c 89 e2             	mov    %r12,%rdx
  4018d2:	48 89 de             	mov    %rbx,%rsi
  4018d5:	89 ef                	mov    %ebp,%edi
  4018d7:	e8 04 fb ff ff       	callq  4013e0 <getopt@plt>
  4018dc:	3c ff                	cmp    $0xff,%al
  4018de:	74 7b                	je     40195b <main+0x1c2>
  4018e0:	0f be c8             	movsbl %al,%ecx
  4018e3:	83 e8 61             	sub    $0x61,%eax
  4018e6:	3c 14                	cmp    $0x14,%al
  4018e8:	77 51                	ja     40193b <main+0x1a2>
  4018ea:	0f b6 c0             	movzbl %al,%eax
  4018ed:	48 8d 15 98 29 00 00 	lea    0x2998(%rip),%rdx        # 40428c <_IO_stdin_used+0x28c>
  4018f4:	48 63 04 82          	movslq (%rdx,%rax,4),%rax
  4018f8:	48 01 d0             	add    %rdx,%rax
  4018fb:	3e ff e0             	notrack jmpq *%rax
  4018fe:	ba 0a 00 00 00       	mov    $0xa,%edx
  401903:	be 00 00 00 00       	mov    $0x0,%esi
  401908:	48 8b 3d b9 5b 00 00 	mov    0x5bb9(%rip),%rdi        # 4074c8 <optarg@@GLIBC_2.2.5>
  40190f:	e8 4c fa ff ff       	callq  401360 <strtol@plt>
  401914:	41 89 c5             	mov    %eax,%r13d
  401917:	eb b6                	jmp    4018cf <main+0x136>
  401919:	c7 05 7d 5b 00 00 00 	movl   $0x0,0x5b7d(%rip)        # 4074a0 <notify>
  401920:	00 00 00 
  401923:	eb aa                	jmp    4018cf <main+0x136>
  401925:	48 89 e7             	mov    %rsp,%rdi
  401928:	ba 50 00 00 00       	mov    $0x50,%edx
  40192d:	48 8b 35 94 5b 00 00 	mov    0x5b94(%rip),%rsi        # 4074c8 <optarg@@GLIBC_2.2.5>
  401934:	e8 47 f9 ff ff       	callq  401280 <strncpy@plt>
  401939:	eb 94                	jmp    4018cf <main+0x136>
  40193b:	89 ca                	mov    %ecx,%edx
  40193d:	48 8d 35 25 29 00 00 	lea    0x2925(%rip),%rsi        # 404269 <_IO_stdin_used+0x269>
  401944:	bf 01 00 00 00       	mov    $0x1,%edi
  401949:	b8 00 00 00 00       	mov    $0x0,%eax
  40194e:	e8 6d fa ff ff       	callq  4013c0 <__printf_chk@plt>
  401953:	48 8b 3b             	mov    (%rbx),%rdi
  401956:	e8 fb fb ff ff       	callq  401556 <usage>
  40195b:	be 01 00 00 00       	mov    $0x1,%esi
  401960:	44 89 ef             	mov    %r13d,%edi
  401963:	e8 8c fc ff ff       	callq  4015f4 <initialize_target>
  401968:	83 3d b9 5b 00 00 00 	cmpl   $0x0,0x5bb9(%rip)        # 407528 <is_checker>
  40196f:	74 3f                	je     4019b0 <main+0x217>
  401971:	44 39 35 a8 5b 00 00 	cmp    %r14d,0x5ba8(%rip)        # 407520 <authkey>
  401978:	75 13                	jne    40198d <main+0x1f4>
  40197a:	48 89 e7             	mov    %rsp,%rdi
  40197d:	48 8b 35 dc 57 00 00 	mov    0x57dc(%rip),%rsi        # 407160 <user_id>
  401984:	e8 97 f9 ff ff       	callq  401320 <strcmp@plt>
  401989:	85 c0                	test   %eax,%eax
  40198b:	74 23                	je     4019b0 <main+0x217>
  40198d:	44 89 f2             	mov    %r14d,%edx
  401990:	48 8d 35 f1 27 00 00 	lea    0x27f1(%rip),%rsi        # 404188 <_IO_stdin_used+0x188>
  401997:	bf 01 00 00 00       	mov    $0x1,%edi
  40199c:	b8 00 00 00 00       	mov    $0x0,%eax
  4019a1:	e8 1a fa ff ff       	callq  4013c0 <__printf_chk@plt>
  4019a6:	b8 00 00 00 00       	mov    $0x0,%eax
  4019ab:	e8 9d 0a 00 00       	callq  40244d <check_fail>
  4019b0:	8b 15 6e 5b 00 00    	mov    0x5b6e(%rip),%edx        # 407524 <cookie>
  4019b6:	48 8d 35 bf 28 00 00 	lea    0x28bf(%rip),%rsi        # 40427c <_IO_stdin_used+0x27c>
  4019bd:	bf 01 00 00 00       	mov    $0x1,%edi
  4019c2:	b8 00 00 00 00       	mov    $0x0,%eax
  4019c7:	e8 f4 f9 ff ff       	callq  4013c0 <__printf_chk@plt>
  4019cc:	be 00 00 00 00       	mov    $0x0,%esi
  4019d1:	48 8b 3d d0 5a 00 00 	mov    0x5ad0(%rip),%rdi        # 4074a8 <buf_offset>
  4019d8:	e8 ec 0f 00 00       	callq  4029c9 <launch>
  4019dd:	b8 00 00 00 00       	mov    $0x0,%eax
  4019e2:	48 8b 4c 24 58       	mov    0x58(%rsp),%rcx
  4019e7:	64 48 33 0c 25 28 00 	xor    %fs:0x28,%rcx
  4019ee:	00 00 
  4019f0:	75 0d                	jne    4019ff <main+0x266>
  4019f2:	48 83 c4 60          	add    $0x60,%rsp
  4019f6:	5b                   	pop    %rbx
  4019f7:	5d                   	pop    %rbp
  4019f8:	41 5c                	pop    %r12
  4019fa:	41 5d                	pop    %r13
  4019fc:	41 5e                	pop    %r14
  4019fe:	c3                   	retq   
  4019ff:	e8 6b 0f 00 00       	callq  40296f <__stack_chk_fail>

0000000000401a04 <scramble>:
  401a04:	f3 0f 1e fa          	endbr64 
  401a08:	48 83 ec 38          	sub    $0x38,%rsp
  401a0c:	64 48 8b 04 25 28 00 	mov    %fs:0x28,%rax
  401a13:	00 00 
  401a15:	48 89 44 24 28       	mov    %rax,0x28(%rsp)
  401a1a:	31 c0                	xor    %eax,%eax
  401a1c:	83 f8 09             	cmp    $0x9,%eax
  401a1f:	77 12                	ja     401a33 <scramble+0x2f>
  401a21:	69 d0 1f dc 00 00    	imul   $0xdc1f,%eax,%edx
  401a27:	01 fa                	add    %edi,%edx
  401a29:	89 c1                	mov    %eax,%ecx
  401a2b:	89 14 8c             	mov    %edx,(%rsp,%rcx,4)
  401a2e:	83 c0 01             	add    $0x1,%eax
  401a31:	eb e9                	jmp    401a1c <scramble+0x18>
  401a33:	8b 44 24 14          	mov    0x14(%rsp),%eax
  401a37:	69 c0 4d 50 00 00    	imul   $0x504d,%eax,%eax
  401a3d:	89 44 24 14          	mov    %eax,0x14(%rsp)
  401a41:	8b 44 24 24          	mov    0x24(%rsp),%eax
  401a45:	69 c0 17 6b 00 00    	imul   $0x6b17,%eax,%eax
  401a4b:	89 44 24 24          	mov    %eax,0x24(%rsp)
  401a4f:	8b 44 24 08          	mov    0x8(%rsp),%eax
  401a53:	69 c0 e9 11 00 00    	imul   $0x11e9,%eax,%eax
  401a59:	89 44 24 08          	mov    %eax,0x8(%rsp)
  401a5d:	8b 44 24 18          	mov    0x18(%rsp),%eax
  401a61:	69 c0 aa 73 00 00    	imul   $0x73aa,%eax,%eax
  401a67:	89 44 24 18          	mov    %eax,0x18(%rsp)
  401a6b:	8b 44 24 04          	mov    0x4(%rsp),%eax
  401a6f:	69 c0 82 2f 00 00    	imul   $0x2f82,%eax,%eax
  401a75:	89 44 24 04          	mov    %eax,0x4(%rsp)
  401a79:	8b 44 24 10          	mov    0x10(%rsp),%eax
  401a7d:	69 c0 50 d6 00 00    	imul   $0xd650,%eax,%eax
  401a83:	89 44 24 10          	mov    %eax,0x10(%rsp)
  401a87:	8b 04 24             	mov    (%rsp),%eax
  401a8a:	69 c0 ef 11 00 00    	imul   $0x11ef,%eax,%eax
  401a90:	89 04 24             	mov    %eax,(%rsp)
  401a93:	8b 44 24 1c          	mov    0x1c(%rsp),%eax
  401a97:	69 c0 75 a7 00 00    	imul   $0xa775,%eax,%eax
  401a9d:	89 44 24 1c          	mov    %eax,0x1c(%rsp)
  401aa1:	8b 44 24 18          	mov    0x18(%rsp),%eax
  401aa5:	69 c0 cf ea 00 00    	imul   $0xeacf,%eax,%eax
  401aab:	89 44 24 18          	mov    %eax,0x18(%rsp)
  401aaf:	8b 44 24 08          	mov    0x8(%rsp),%eax
  401ab3:	69 c0 14 02 00 00    	imul   $0x214,%eax,%eax
  401ab9:	89 44 24 08          	mov    %eax,0x8(%rsp)
  401abd:	8b 44 24 10          	mov    0x10(%rsp),%eax
  401ac1:	69 c0 ef f1 00 00    	imul   $0xf1ef,%eax,%eax
  401ac7:	89 44 24 10          	mov    %eax,0x10(%rsp)
  401acb:	8b 44 24 08          	mov    0x8(%rsp),%eax
  401acf:	69 c0 fd a1 00 00    	imul   $0xa1fd,%eax,%eax
  401ad5:	89 44 24 08          	mov    %eax,0x8(%rsp)
  401ad9:	8b 04 24             	mov    (%rsp),%eax
  401adc:	8d 04 c0             	lea    (%rax,%rax,8),%eax
  401adf:	c1 e0 0c             	shl    $0xc,%eax
  401ae2:	89 04 24             	mov    %eax,(%rsp)
  401ae5:	8b 44 24 04          	mov    0x4(%rsp),%eax
  401ae9:	69 c0 6f 45 00 00    	imul   $0x456f,%eax,%eax
  401aef:	89 44 24 04          	mov    %eax,0x4(%rsp)
  401af3:	8b 44 24 1c          	mov    0x1c(%rsp),%eax
  401af7:	69 c0 2b e7 00 00    	imul   $0xe72b,%eax,%eax
  401afd:	89 44 24 1c          	mov    %eax,0x1c(%rsp)
  401b01:	8b 44 24 10          	mov    0x10(%rsp),%eax
  401b05:	69 c0 24 24 00 00    	imul   $0x2424,%eax,%eax
  401b0b:	89 44 24 10          	mov    %eax,0x10(%rsp)
  401b0f:	8b 44 24 18          	mov    0x18(%rsp),%eax
  401b13:	69 c0 30 17 00 00    	imul   $0x1730,%eax,%eax
  401b19:	89 44 24 18          	mov    %eax,0x18(%rsp)
  401b1d:	8b 44 24 10          	mov    0x10(%rsp),%eax
  401b21:	69 c0 d7 9a 00 00    	imul   $0x9ad7,%eax,%eax
  401b27:	89 44 24 10          	mov    %eax,0x10(%rsp)
  401b2b:	8b 44 24 10          	mov    0x10(%rsp),%eax
  401b2f:	69 c0 d2 22 00 00    	imul   $0x22d2,%eax,%eax
  401b35:	89 44 24 10          	mov    %eax,0x10(%rsp)
  401b39:	8b 44 24 10          	mov    0x10(%rsp),%eax
  401b3d:	69 c0 7e ab 00 00    	imul   $0xab7e,%eax,%eax
  401b43:	89 44 24 10          	mov    %eax,0x10(%rsp)
  401b47:	8b 44 24 14          	mov    0x14(%rsp),%eax
  401b4b:	69 c0 fd 92 00 00    	imul   $0x92fd,%eax,%eax
  401b51:	89 44 24 14          	mov    %eax,0x14(%rsp)
  401b55:	8b 44 24 10          	mov    0x10(%rsp),%eax
  401b59:	69 c0 ca 55 00 00    	imul   $0x55ca,%eax,%eax
  401b5f:	89 44 24 10          	mov    %eax,0x10(%rsp)
  401b63:	8b 44 24 14          	mov    0x14(%rsp),%eax
  401b67:	69 c0 7f fd 00 00    	imul   $0xfd7f,%eax,%eax
  401b6d:	89 44 24 14          	mov    %eax,0x14(%rsp)
  401b71:	8b 04 24             	mov    (%rsp),%eax
  401b74:	69 c0 41 98 00 00    	imul   $0x9841,%eax,%eax
  401b7a:	89 04 24             	mov    %eax,(%rsp)
  401b7d:	8b 44 24 1c          	mov    0x1c(%rsp),%eax
  401b81:	69 c0 75 b8 00 00    	imul   $0xb875,%eax,%eax
  401b87:	89 44 24 1c          	mov    %eax,0x1c(%rsp)
  401b8b:	8b 44 24 14          	mov    0x14(%rsp),%eax
  401b8f:	69 c0 a6 e5 00 00    	imul   $0xe5a6,%eax,%eax
  401b95:	89 44 24 14          	mov    %eax,0x14(%rsp)
  401b99:	8b 44 24 0c          	mov    0xc(%rsp),%eax
  401b9d:	69 c0 49 fa 00 00    	imul   $0xfa49,%eax,%eax
  401ba3:	89 44 24 0c          	mov    %eax,0xc(%rsp)
  401ba7:	8b 44 24 1c          	mov    0x1c(%rsp),%eax
  401bab:	69 c0 35 7f 00 00    	imul   $0x7f35,%eax,%eax
  401bb1:	89 44 24 1c          	mov    %eax,0x1c(%rsp)
  401bb5:	8b 44 24 20          	mov    0x20(%rsp),%eax
  401bb9:	69 c0 ab 49 00 00    	imul   $0x49ab,%eax,%eax
  401bbf:	89 44 24 20          	mov    %eax,0x20(%rsp)
  401bc3:	8b 04 24             	mov    (%rsp),%eax
  401bc6:	69 c0 4f d2 00 00    	imul   $0xd24f,%eax,%eax
  401bcc:	89 04 24             	mov    %eax,(%rsp)
  401bcf:	8b 44 24 04          	mov    0x4(%rsp),%eax
  401bd3:	69 c0 28 38 00 00    	imul   $0x3828,%eax,%eax
  401bd9:	89 44 24 04          	mov    %eax,0x4(%rsp)
  401bdd:	8b 04 24             	mov    (%rsp),%eax
  401be0:	69 c0 4f 68 00 00    	imul   $0x684f,%eax,%eax
  401be6:	89 04 24             	mov    %eax,(%rsp)
  401be9:	8b 04 24             	mov    (%rsp),%eax
  401bec:	69 c0 af 85 00 00    	imul   $0x85af,%eax,%eax
  401bf2:	89 04 24             	mov    %eax,(%rsp)
  401bf5:	8b 44 24 1c          	mov    0x1c(%rsp),%eax
  401bf9:	69 c0 72 78 00 00    	imul   $0x7872,%eax,%eax
  401bff:	89 44 24 1c          	mov    %eax,0x1c(%rsp)
  401c03:	8b 44 24 04          	mov    0x4(%rsp),%eax
  401c07:	69 c0 a8 11 00 00    	imul   $0x11a8,%eax,%eax
  401c0d:	89 44 24 04          	mov    %eax,0x4(%rsp)
  401c11:	8b 04 24             	mov    (%rsp),%eax
  401c14:	69 c0 d5 fa 00 00    	imul   $0xfad5,%eax,%eax
  401c1a:	89 04 24             	mov    %eax,(%rsp)
  401c1d:	8b 44 24 14          	mov    0x14(%rsp),%eax
  401c21:	69 c0 c0 a5 00 00    	imul   $0xa5c0,%eax,%eax
  401c27:	89 44 24 14          	mov    %eax,0x14(%rsp)
  401c2b:	8b 44 24 14          	mov    0x14(%rsp),%eax
  401c2f:	69 c0 92 49 00 00    	imul   $0x4992,%eax,%eax
  401c35:	89 44 24 14          	mov    %eax,0x14(%rsp)
  401c39:	8b 44 24 20          	mov    0x20(%rsp),%eax
  401c3d:	69 c0 df 4d 00 00    	imul   $0x4ddf,%eax,%eax
  401c43:	89 44 24 20          	mov    %eax,0x20(%rsp)
  401c47:	8b 44 24 10          	mov    0x10(%rsp),%eax
  401c4b:	69 c0 8d 8b 00 00    	imul   $0x8b8d,%eax,%eax
  401c51:	89 44 24 10          	mov    %eax,0x10(%rsp)
  401c55:	8b 04 24             	mov    (%rsp),%eax
  401c58:	69 c0 29 7c 00 00    	imul   $0x7c29,%eax,%eax
  401c5e:	89 04 24             	mov    %eax,(%rsp)
  401c61:	8b 44 24 04          	mov    0x4(%rsp),%eax
  401c65:	69 c0 b9 b0 00 00    	imul   $0xb0b9,%eax,%eax
  401c6b:	89 44 24 04          	mov    %eax,0x4(%rsp)
  401c6f:	8b 44 24 0c          	mov    0xc(%rsp),%eax
  401c73:	69 c0 d7 f8 00 00    	imul   $0xf8d7,%eax,%eax
  401c79:	89 44 24 0c          	mov    %eax,0xc(%rsp)
  401c7d:	8b 44 24 04          	mov    0x4(%rsp),%eax
  401c81:	69 c0 bc 00 00 00    	imul   $0xbc,%eax,%eax
  401c87:	89 44 24 04          	mov    %eax,0x4(%rsp)
  401c8b:	8b 44 24 04          	mov    0x4(%rsp),%eax
  401c8f:	69 c0 93 f4 00 00    	imul   $0xf493,%eax,%eax
  401c95:	89 44 24 04          	mov    %eax,0x4(%rsp)
  401c99:	8b 44 24 04          	mov    0x4(%rsp),%eax
  401c9d:	69 c0 59 73 00 00    	imul   $0x7359,%eax,%eax
  401ca3:	89 44 24 04          	mov    %eax,0x4(%rsp)
  401ca7:	8b 44 24 20          	mov    0x20(%rsp),%eax
  401cab:	69 c0 7f c9 00 00    	imul   $0xc97f,%eax,%eax
  401cb1:	89 44 24 20          	mov    %eax,0x20(%rsp)
  401cb5:	8b 44 24 08          	mov    0x8(%rsp),%eax
  401cb9:	69 c0 14 7c 00 00    	imul   $0x7c14,%eax,%eax
  401cbf:	89 44 24 08          	mov    %eax,0x8(%rsp)
  401cc3:	8b 04 24             	mov    (%rsp),%eax
  401cc6:	69 c0 cf de 00 00    	imul   $0xdecf,%eax,%eax
  401ccc:	89 04 24             	mov    %eax,(%rsp)
  401ccf:	8b 44 24 0c          	mov    0xc(%rsp),%eax
  401cd3:	69 c0 b0 f7 00 00    	imul   $0xf7b0,%eax,%eax
  401cd9:	89 44 24 0c          	mov    %eax,0xc(%rsp)
  401cdd:	8b 44 24 14          	mov    0x14(%rsp),%eax
  401ce1:	69 c0 77 18 00 00    	imul   $0x1877,%eax,%eax
  401ce7:	89 44 24 14          	mov    %eax,0x14(%rsp)
  401ceb:	8b 44 24 04          	mov    0x4(%rsp),%eax
  401cef:	69 c0 1d 95 00 00    	imul   $0x951d,%eax,%eax
  401cf5:	89 44 24 04          	mov    %eax,0x4(%rsp)
  401cf9:	8b 44 24 08          	mov    0x8(%rsp),%eax
  401cfd:	69 c0 25 43 00 00    	imul   $0x4325,%eax,%eax
  401d03:	89 44 24 08          	mov    %eax,0x8(%rsp)
  401d07:	8b 44 24 10          	mov    0x10(%rsp),%eax
  401d0b:	69 c0 76 61 00 00    	imul   $0x6176,%eax,%eax
  401d11:	89 44 24 10          	mov    %eax,0x10(%rsp)
  401d15:	8b 44 24 10          	mov    0x10(%rsp),%eax
  401d19:	69 c0 84 c0 00 00    	imul   $0xc084,%eax,%eax
  401d1f:	89 44 24 10          	mov    %eax,0x10(%rsp)
  401d23:	8b 44 24 1c          	mov    0x1c(%rsp),%eax
  401d27:	69 c0 58 97 00 00    	imul   $0x9758,%eax,%eax
  401d2d:	89 44 24 1c          	mov    %eax,0x1c(%rsp)
  401d31:	8b 44 24 08          	mov    0x8(%rsp),%eax
  401d35:	69 c0 38 5e 00 00    	imul   $0x5e38,%eax,%eax
  401d3b:	89 44 24 08          	mov    %eax,0x8(%rsp)
  401d3f:	8b 44 24 24          	mov    0x24(%rsp),%eax
  401d43:	69 c0 20 b3 00 00    	imul   $0xb320,%eax,%eax
  401d49:	89 44 24 24          	mov    %eax,0x24(%rsp)
  401d4d:	8b 44 24 04          	mov    0x4(%rsp),%eax
  401d51:	69 c0 01 78 00 00    	imul   $0x7801,%eax,%eax
  401d57:	89 44 24 04          	mov    %eax,0x4(%rsp)
  401d5b:	8b 44 24 20          	mov    0x20(%rsp),%eax
  401d5f:	69 c0 92 99 00 00    	imul   $0x9992,%eax,%eax
  401d65:	89 44 24 20          	mov    %eax,0x20(%rsp)
  401d69:	8b 44 24 18          	mov    0x18(%rsp),%eax
  401d6d:	69 c0 e8 86 00 00    	imul   $0x86e8,%eax,%eax
  401d73:	89 44 24 18          	mov    %eax,0x18(%rsp)
  401d77:	8b 44 24 24          	mov    0x24(%rsp),%eax
  401d7b:	69 c0 50 99 00 00    	imul   $0x9950,%eax,%eax
  401d81:	89 44 24 24          	mov    %eax,0x24(%rsp)
  401d85:	8b 44 24 10          	mov    0x10(%rsp),%eax
  401d89:	69 c0 94 e8 00 00    	imul   $0xe894,%eax,%eax
  401d8f:	89 44 24 10          	mov    %eax,0x10(%rsp)
  401d93:	8b 44 24 14          	mov    0x14(%rsp),%eax
  401d97:	69 c0 96 9f 00 00    	imul   $0x9f96,%eax,%eax
  401d9d:	89 44 24 14          	mov    %eax,0x14(%rsp)
  401da1:	8b 44 24 10          	mov    0x10(%rsp),%eax
  401da5:	69 c0 ea 09 00 00    	imul   $0x9ea,%eax,%eax
  401dab:	89 44 24 10          	mov    %eax,0x10(%rsp)
  401daf:	8b 04 24             	mov    (%rsp),%eax
  401db2:	69 c0 db b7 00 00    	imul   $0xb7db,%eax,%eax
  401db8:	89 04 24             	mov    %eax,(%rsp)
  401dbb:	8b 44 24 18          	mov    0x18(%rsp),%eax
  401dbf:	69 c0 cb 89 00 00    	imul   $0x89cb,%eax,%eax
  401dc5:	89 44 24 18          	mov    %eax,0x18(%rsp)
  401dc9:	8b 04 24             	mov    (%rsp),%eax
  401dcc:	69 c0 99 e0 00 00    	imul   $0xe099,%eax,%eax
  401dd2:	89 04 24             	mov    %eax,(%rsp)
  401dd5:	8b 44 24 20          	mov    0x20(%rsp),%eax
  401dd9:	69 c0 a8 2b 00 00    	imul   $0x2ba8,%eax,%eax
  401ddf:	89 44 24 20          	mov    %eax,0x20(%rsp)
  401de3:	8b 04 24             	mov    (%rsp),%eax
  401de6:	69 c0 f4 5d 00 00    	imul   $0x5df4,%eax,%eax
  401dec:	89 04 24             	mov    %eax,(%rsp)
  401def:	8b 44 24 14          	mov    0x14(%rsp),%eax
  401df3:	69 c0 14 2f 00 00    	imul   $0x2f14,%eax,%eax
  401df9:	89 44 24 14          	mov    %eax,0x14(%rsp)
  401dfd:	8b 44 24 20          	mov    0x20(%rsp),%eax
  401e01:	69 c0 da 28 00 00    	imul   $0x28da,%eax,%eax
  401e07:	89 44 24 20          	mov    %eax,0x20(%rsp)
  401e0b:	8b 04 24             	mov    (%rsp),%eax
  401e0e:	69 c0 5f 3d 00 00    	imul   $0x3d5f,%eax,%eax
  401e14:	89 04 24             	mov    %eax,(%rsp)
  401e17:	8b 44 24 10          	mov    0x10(%rsp),%eax
  401e1b:	69 c0 5b e4 00 00    	imul   $0xe45b,%eax,%eax
  401e21:	89 44 24 10          	mov    %eax,0x10(%rsp)
  401e25:	8b 44 24 08          	mov    0x8(%rsp),%eax
  401e29:	69 c0 d7 8f 00 00    	imul   $0x8fd7,%eax,%eax
  401e2f:	89 44 24 08          	mov    %eax,0x8(%rsp)
  401e33:	8b 44 24 20          	mov    0x20(%rsp),%eax
  401e37:	69 c0 f4 21 00 00    	imul   $0x21f4,%eax,%eax
  401e3d:	89 44 24 20          	mov    %eax,0x20(%rsp)
  401e41:	8b 44 24 08          	mov    0x8(%rsp),%eax
  401e45:	69 c0 da 8a 00 00    	imul   $0x8ada,%eax,%eax
  401e4b:	89 44 24 08          	mov    %eax,0x8(%rsp)
  401e4f:	8b 44 24 10          	mov    0x10(%rsp),%eax
  401e53:	69 c0 27 67 00 00    	imul   $0x6727,%eax,%eax
  401e59:	89 44 24 10          	mov    %eax,0x10(%rsp)
  401e5d:	8b 44 24 04          	mov    0x4(%rsp),%eax
  401e61:	69 c0 a8 d0 00 00    	imul   $0xd0a8,%eax,%eax
  401e67:	89 44 24 04          	mov    %eax,0x4(%rsp)
  401e6b:	8b 44 24 14          	mov    0x14(%rsp),%eax
  401e6f:	69 c0 d2 3a 00 00    	imul   $0x3ad2,%eax,%eax
  401e75:	89 44 24 14          	mov    %eax,0x14(%rsp)
  401e79:	8b 44 24 0c          	mov    0xc(%rsp),%eax
  401e7d:	69 c0 03 9e 00 00    	imul   $0x9e03,%eax,%eax
  401e83:	89 44 24 0c          	mov    %eax,0xc(%rsp)
  401e87:	8b 44 24 14          	mov    0x14(%rsp),%eax
  401e8b:	69 c0 f5 fc 00 00    	imul   $0xfcf5,%eax,%eax
  401e91:	89 44 24 14          	mov    %eax,0x14(%rsp)
  401e95:	8b 44 24 20          	mov    0x20(%rsp),%eax
  401e99:	69 c0 a5 3f 00 00    	imul   $0x3fa5,%eax,%eax
  401e9f:	89 44 24 20          	mov    %eax,0x20(%rsp)
  401ea3:	8b 44 24 08          	mov    0x8(%rsp),%eax
  401ea7:	69 c0 bf f4 00 00    	imul   $0xf4bf,%eax,%eax
  401ead:	89 44 24 08          	mov    %eax,0x8(%rsp)
  401eb1:	8b 44 24 10          	mov    0x10(%rsp),%eax
  401eb5:	69 c0 9e 1f 00 00    	imul   $0x1f9e,%eax,%eax
  401ebb:	89 44 24 10          	mov    %eax,0x10(%rsp)
  401ebf:	8b 44 24 08          	mov    0x8(%rsp),%eax
  401ec3:	69 c0 7a 57 00 00    	imul   $0x577a,%eax,%eax
  401ec9:	89 44 24 08          	mov    %eax,0x8(%rsp)
  401ecd:	8b 44 24 08          	mov    0x8(%rsp),%eax
  401ed1:	69 c0 01 48 00 00    	imul   $0x4801,%eax,%eax
  401ed7:	89 44 24 08          	mov    %eax,0x8(%rsp)
  401edb:	b8 00 00 00 00       	mov    $0x0,%eax
  401ee0:	ba 00 00 00 00       	mov    $0x0,%edx
  401ee5:	83 f8 09             	cmp    $0x9,%eax
  401ee8:	77 0c                	ja     401ef6 <scramble+0x4f2>
  401eea:	89 c1                	mov    %eax,%ecx
  401eec:	8b 0c 8c             	mov    (%rsp,%rcx,4),%ecx
  401eef:	01 ca                	add    %ecx,%edx
  401ef1:	83 c0 01             	add    $0x1,%eax
  401ef4:	eb ef                	jmp    401ee5 <scramble+0x4e1>
  401ef6:	48 8b 44 24 28       	mov    0x28(%rsp),%rax
  401efb:	64 48 33 04 25 28 00 	xor    %fs:0x28,%rax
  401f02:	00 00 
  401f04:	75 07                	jne    401f0d <scramble+0x509>
  401f06:	89 d0                	mov    %edx,%eax
  401f08:	48 83 c4 38          	add    $0x38,%rsp
  401f0c:	c3                   	retq   
  401f0d:	e8 5d 0a 00 00       	callq  40296f <__stack_chk_fail>

0000000000401f12 <getbuf>:
  401f12:	f3 0f 1e fa          	endbr64 
  401f16:	48 83 ec 38          	sub    $0x38,%rsp
  401f1a:	48 89 e7             	mov    %rsp,%rdi
  401f1d:	e8 69 05 00 00       	callq  40248b <Gets>
  401f22:	b8 01 00 00 00       	mov    $0x1,%eax
  401f27:	48 83 c4 38          	add    $0x38,%rsp
  401f2b:	c3                   	retq   

0000000000401f2c <touch1>:
  401f2c:	f3 0f 1e fa          	endbr64 
  401f30:	50                   	push   %rax
  401f31:	58                   	pop    %rax
  401f32:	48 83 ec 08          	sub    $0x8,%rsp
  401f36:	c7 05 dc 55 00 00 01 	movl   $0x1,0x55dc(%rip)        # 40751c <vlevel>
  401f3d:	00 00 00 
  401f40:	48 8d 3d cf 23 00 00 	lea    0x23cf(%rip),%rdi        # 404316 <_IO_stdin_used+0x316>
  401f47:	e8 64 f3 ff ff       	callq  4012b0 <puts@plt>
  401f4c:	bf 01 00 00 00       	mov    $0x1,%edi
  401f51:	e8 a7 07 00 00       	callq  4026fd <validate>
  401f56:	bf 00 00 00 00       	mov    $0x0,%edi
  401f5b:	e8 b0 f4 ff ff       	callq  401410 <exit@plt>

0000000000401f60 <touch2>:
  401f60:	f3 0f 1e fa          	endbr64 
  401f64:	50                   	push   %rax
  401f65:	58                   	pop    %rax
  401f66:	48 83 ec 08          	sub    $0x8,%rsp
  401f6a:	89 fa                	mov    %edi,%edx
  401f6c:	c7 05 a6 55 00 00 02 	movl   $0x2,0x55a6(%rip)        # 40751c <vlevel>
  401f73:	00 00 00 
  401f76:	39 3d a8 55 00 00    	cmp    %edi,0x55a8(%rip)        # 407524 <cookie>
  401f7c:	74 2a                	je     401fa8 <touch2+0x48>
  401f7e:	48 8d 35 db 23 00 00 	lea    0x23db(%rip),%rsi        # 404360 <_IO_stdin_used+0x360>
  401f85:	bf 01 00 00 00       	mov    $0x1,%edi
  401f8a:	b8 00 00 00 00       	mov    $0x0,%eax
  401f8f:	e8 2c f4 ff ff       	callq  4013c0 <__printf_chk@plt>
  401f94:	bf 02 00 00 00       	mov    $0x2,%edi
  401f99:	e8 3a 08 00 00       	callq  4027d8 <fail>
  401f9e:	bf 00 00 00 00       	mov    $0x0,%edi
  401fa3:	e8 68 f4 ff ff       	callq  401410 <exit@plt>
  401fa8:	48 8d 35 89 23 00 00 	lea    0x2389(%rip),%rsi        # 404338 <_IO_stdin_used+0x338>
  401faf:	bf 01 00 00 00       	mov    $0x1,%edi
  401fb4:	b8 00 00 00 00       	mov    $0x0,%eax
  401fb9:	e8 02 f4 ff ff       	callq  4013c0 <__printf_chk@plt>
  401fbe:	bf 02 00 00 00       	mov    $0x2,%edi
  401fc3:	e8 35 07 00 00       	callq  4026fd <validate>
  401fc8:	eb d4                	jmp    401f9e <touch2+0x3e>

0000000000401fca <hexmatch>:
  401fca:	f3 0f 1e fa          	endbr64 
  401fce:	41 55                	push   %r13
  401fd0:	41 54                	push   %r12
  401fd2:	55                   	push   %rbp
  401fd3:	53                   	push   %rbx
  401fd4:	48 81 ec 88 00 00 00 	sub    $0x88,%rsp
  401fdb:	89 fd                	mov    %edi,%ebp
  401fdd:	48 89 f3             	mov    %rsi,%rbx
  401fe0:	41 bc 28 00 00 00    	mov    $0x28,%r12d
  401fe6:	64 49 8b 04 24       	mov    %fs:(%r12),%rax
  401feb:	48 89 44 24 78       	mov    %rax,0x78(%rsp)
  401ff0:	31 c0                	xor    %eax,%eax
  401ff2:	e8 99 f3 ff ff       	callq  401390 <random@plt>
  401ff7:	48 89 c1             	mov    %rax,%rcx
  401ffa:	48 ba 0b d7 a3 70 3d 	movabs $0xa3d70a3d70a3d70b,%rdx
  402001:	0a d7 a3 
  402004:	48 f7 ea             	imul   %rdx
  402007:	48 01 ca             	add    %rcx,%rdx
  40200a:	48 c1 fa 06          	sar    $0x6,%rdx
  40200e:	48 89 c8             	mov    %rcx,%rax
  402011:	48 c1 f8 3f          	sar    $0x3f,%rax
  402015:	48 29 c2             	sub    %rax,%rdx
  402018:	48 8d 04 92          	lea    (%rdx,%rdx,4),%rax
  40201c:	48 8d 04 80          	lea    (%rax,%rax,4),%rax
  402020:	48 c1 e0 02          	shl    $0x2,%rax
  402024:	48 29 c1             	sub    %rax,%rcx
  402027:	4c 8d 2c 0c          	lea    (%rsp,%rcx,1),%r13
  40202b:	41 89 e8             	mov    %ebp,%r8d
  40202e:	48 8d 0d fe 22 00 00 	lea    0x22fe(%rip),%rcx        # 404333 <_IO_stdin_used+0x333>
  402035:	48 c7 c2 ff ff ff ff 	mov    $0xffffffffffffffff,%rdx
  40203c:	be 01 00 00 00       	mov    $0x1,%esi
  402041:	4c 89 ef             	mov    %r13,%rdi
  402044:	b8 00 00 00 00       	mov    $0x0,%eax
  402049:	e8 02 f4 ff ff       	callq  401450 <__sprintf_chk@plt>
  40204e:	ba 09 00 00 00       	mov    $0x9,%edx
  402053:	4c 89 ee             	mov    %r13,%rsi
  402056:	48 89 df             	mov    %rbx,%rdi
  402059:	e8 32 f2 ff ff       	callq  401290 <strncmp@plt>
  40205e:	85 c0                	test   %eax,%eax
  402060:	0f 94 c0             	sete   %al
  402063:	48 8b 5c 24 78       	mov    0x78(%rsp),%rbx
  402068:	64 49 33 1c 24       	xor    %fs:(%r12),%rbx
  40206d:	75 11                	jne    402080 <hexmatch+0xb6>
  40206f:	0f b6 c0             	movzbl %al,%eax
  402072:	48 81 c4 88 00 00 00 	add    $0x88,%rsp
  402079:	5b                   	pop    %rbx
  40207a:	5d                   	pop    %rbp
  40207b:	41 5c                	pop    %r12
  40207d:	41 5d                	pop    %r13
  40207f:	c3                   	retq   
  402080:	e8 ea 08 00 00       	callq  40296f <__stack_chk_fail>

0000000000402085 <touch3>:
  402085:	f3 0f 1e fa          	endbr64 
  402089:	53                   	push   %rbx
  40208a:	48 89 fb             	mov    %rdi,%rbx
  40208d:	c7 05 85 54 00 00 03 	movl   $0x3,0x5485(%rip)        # 40751c <vlevel>
  402094:	00 00 00 
  402097:	48 89 fe             	mov    %rdi,%rsi
  40209a:	8b 3d 84 54 00 00    	mov    0x5484(%rip),%edi        # 407524 <cookie>
  4020a0:	e8 25 ff ff ff       	callq  401fca <hexmatch>
  4020a5:	85 c0                	test   %eax,%eax
  4020a7:	74 2d                	je     4020d6 <touch3+0x51>
  4020a9:	48 89 da             	mov    %rbx,%rdx
  4020ac:	48 8d 35 d5 22 00 00 	lea    0x22d5(%rip),%rsi        # 404388 <_IO_stdin_used+0x388>
  4020b3:	bf 01 00 00 00       	mov    $0x1,%edi
  4020b8:	b8 00 00 00 00       	mov    $0x0,%eax
  4020bd:	e8 fe f2 ff ff       	callq  4013c0 <__printf_chk@plt>
  4020c2:	bf 03 00 00 00       	mov    $0x3,%edi
  4020c7:	e8 31 06 00 00       	callq  4026fd <validate>
  4020cc:	bf 00 00 00 00       	mov    $0x0,%edi
  4020d1:	e8 3a f3 ff ff       	callq  401410 <exit@plt>
  4020d6:	48 89 da             	mov    %rbx,%rdx
  4020d9:	48 8d 35 d0 22 00 00 	lea    0x22d0(%rip),%rsi        # 4043b0 <_IO_stdin_used+0x3b0>
  4020e0:	bf 01 00 00 00       	mov    $0x1,%edi
  4020e5:	b8 00 00 00 00       	mov    $0x0,%eax
  4020ea:	e8 d1 f2 ff ff       	callq  4013c0 <__printf_chk@plt>
  4020ef:	bf 03 00 00 00       	mov    $0x3,%edi
  4020f4:	e8 df 06 00 00       	callq  4027d8 <fail>
  4020f9:	eb d1                	jmp    4020cc <touch3+0x47>

00000000004020fb <test>:
  4020fb:	f3 0f 1e fa          	endbr64 
  4020ff:	48 83 ec 08          	sub    $0x8,%rsp
  402103:	b8 00 00 00 00       	mov    $0x0,%eax
  402108:	e8 05 fe ff ff       	callq  401f12 <getbuf>
  40210d:	89 c2                	mov    %eax,%edx
  40210f:	48 8d 35 c2 22 00 00 	lea    0x22c2(%rip),%rsi        # 4043d8 <_IO_stdin_used+0x3d8>
  402116:	bf 01 00 00 00       	mov    $0x1,%edi
  40211b:	b8 00 00 00 00       	mov    $0x0,%eax
  402120:	e8 9b f2 ff ff       	callq  4013c0 <__printf_chk@plt>
  402125:	48 83 c4 08          	add    $0x8,%rsp
  402129:	c3                   	retq   

000000000040212a <test2>:
  40212a:	f3 0f 1e fa          	endbr64 
  40212e:	48 83 ec 08          	sub    $0x8,%rsp
  402132:	b8 00 00 00 00       	mov    $0x0,%eax
  402137:	e8 1d 00 00 00       	callq  402159 <getbuf_withcanary>
  40213c:	89 c2                	mov    %eax,%edx
  40213e:	48 8d 35 bb 22 00 00 	lea    0x22bb(%rip),%rsi        # 404400 <_IO_stdin_used+0x400>
  402145:	bf 01 00 00 00       	mov    $0x1,%edi
  40214a:	b8 00 00 00 00       	mov    $0x0,%eax
  40214f:	e8 6c f2 ff ff       	callq  4013c0 <__printf_chk@plt>
  402154:	48 83 c4 08          	add    $0x8,%rsp
  402158:	c3                   	retq   

0000000000402159 <getbuf_withcanary>:
  402159:	f3 0f 1e fa          	endbr64 
  40215d:	55                   	push   %rbp
  40215e:	48 89 e5             	mov    %rsp,%rbp
  402161:	48 81 ec 90 01 00 00 	sub    $0x190,%rsp
  402168:	64 48 8b 04 25 28 00 	mov    %fs:0x28,%rax
  40216f:	00 00 
  402171:	48 89 45 f8          	mov    %rax,-0x8(%rbp)
  402175:	31 c0                	xor    %eax,%eax
  402177:	c7 85 74 ff ff ff 00 	movl   $0x0,-0x8c(%rbp)
  40217e:	00 00 00 
  402181:	8b 85 74 ff ff ff    	mov    -0x8c(%rbp),%eax
  402187:	89 85 70 ff ff ff    	mov    %eax,-0x90(%rbp)
  40218d:	48 8d 85 70 fe ff ff 	lea    -0x190(%rbp),%rax
  402194:	48 89 c7             	mov    %rax,%rdi
  402197:	e8 ef 02 00 00       	callq  40248b <Gets>
  40219c:	8b 85 70 ff ff ff    	mov    -0x90(%rbp),%eax
  4021a2:	48 63 d0             	movslq %eax,%rdx
  4021a5:	48 8d 85 70 fe ff ff 	lea    -0x190(%rbp),%rax
  4021ac:	48 8d 88 08 01 00 00 	lea    0x108(%rax),%rcx
  4021b3:	48 8d 85 70 fe ff ff 	lea    -0x190(%rbp),%rax
  4021ba:	48 89 ce             	mov    %rcx,%rsi
  4021bd:	48 89 c7             	mov    %rax,%rdi
  4021c0:	e8 ab f1 ff ff       	callq  401370 <memcpy@plt>
  4021c5:	8b 85 74 ff ff ff    	mov    -0x8c(%rbp),%eax
  4021cb:	48 63 d0             	movslq %eax,%rdx
  4021ce:	48 8d 85 70 fe ff ff 	lea    -0x190(%rbp),%rax
  4021d5:	48 8d 8d 70 fe ff ff 	lea    -0x190(%rbp),%rcx
  4021dc:	48 81 c1 08 01 00 00 	add    $0x108,%rcx
  4021e3:	48 89 c6             	mov    %rax,%rsi
  4021e6:	48 89 cf             	mov    %rcx,%rdi
  4021e9:	e8 82 f1 ff ff       	callq  401370 <memcpy@plt>
  4021ee:	b8 01 00 00 00       	mov    $0x1,%eax
  4021f3:	48 8b 55 f8          	mov    -0x8(%rbp),%rdx
  4021f7:	64 48 2b 14 25 28 00 	sub    %fs:0x28,%rdx
  4021fe:	00 00 
  402200:	74 05                	je     402207 <getbuf_withcanary+0xae>
  402202:	e8 68 07 00 00       	callq  40296f <__stack_chk_fail>
  402207:	c9                   	leaveq 
  402208:	c3                   	retq   

0000000000402209 <start_farm>:
  402209:	f3 0f 1e fa          	endbr64 
  40220d:	b8 01 00 00 00       	mov    $0x1,%eax
  402212:	c3                   	retq   

0000000000402213 <getval_124>:
  402213:	f3 0f 1e fa          	endbr64 
  402217:	b8 2d 58 90 90       	mov    $0x9090582d,%eax
  40221c:	c3                   	retq   

000000000040221d <setval_215>:
  40221d:	f3 0f 1e fa          	endbr64 
  402221:	c7 07 48 89 c7 94    	movl   $0x94c78948,(%rdi)
  402227:	c3                   	retq   

0000000000402228 <addval_280>:
  402228:	f3 0f 1e fa          	endbr64 
  40222c:	8d 87 58 92 90 90    	lea    -0x6f6f6da8(%rdi),%eax
  402232:	c3                   	retq   

0000000000402233 <addval_243>:
  402233:	f3 0f 1e fa          	endbr64 
  402237:	8d 87 58 90 c3 cc    	lea    -0x333c6fa8(%rdi),%eax
  40223d:	c3                   	retq   

000000000040223e <getval_177>:
  40223e:	f3 0f 1e fa          	endbr64 
  402242:	b8 58 94 90 90       	mov    $0x90909458,%eax
  402247:	c3                   	retq   

0000000000402248 <setval_228>:
  402248:	f3 0f 1e fa          	endbr64 
  40224c:	c7 07 48 89 c7 90    	movl   $0x90c78948,(%rdi)
  402252:	c3                   	retq   

0000000000402253 <setval_256>:
  402253:	f3 0f 1e fa          	endbr64 
  402257:	c7 07 48 89 c7 c1    	movl   $0xc1c78948,(%rdi)
  40225d:	c3                   	retq   

000000000040225e <getval_310>:
  40225e:	f3 0f 1e fa          	endbr64 
  402262:	b8 48 89 c7 c3       	mov    $0xc3c78948,%eax
  402267:	c3                   	retq   

0000000000402268 <mid_farm>:
  402268:	f3 0f 1e fa          	endbr64 
  40226c:	b8 01 00 00 00       	mov    $0x1,%eax
  402271:	c3                   	retq   

0000000000402272 <add_xy>:
  402272:	f3 0f 1e fa          	endbr64 
  402276:	48 8d 04 37          	lea    (%rdi,%rsi,1),%rax
  40227a:	c3                   	retq   

000000000040227b <getval_287>:
  40227b:	f3 0f 1e fa          	endbr64 
  40227f:	b8 48 89 e0 c1       	mov    $0xc1e08948,%eax
  402284:	c3                   	retq   

0000000000402285 <setval_133>:
  402285:	f3 0f 1e fa          	endbr64 
  402289:	c7 07 01 89 d6 c7    	movl   $0xc7d68901,(%rdi)
  40228f:	c3                   	retq   

0000000000402290 <addval_326>:
  402290:	f3 0f 1e fa          	endbr64 
  402294:	8d 87 89 d6 18 d2    	lea    -0x2de72977(%rdi),%eax
  40229a:	c3                   	retq   

000000000040229b <addval_223>:
  40229b:	f3 0f 1e fa          	endbr64 
  40229f:	8d 87 89 d6 90 90    	lea    -0x6f6f2977(%rdi),%eax
  4022a5:	c3                   	retq   

00000000004022a6 <setval_317>:
  4022a6:	f3 0f 1e fa          	endbr64 
  4022aa:	c7 07 89 c1 28 c9    	movl   $0xc928c189,(%rdi)
  4022b0:	c3                   	retq   

00000000004022b1 <getval_360>:
  4022b1:	f3 0f 1e fa          	endbr64 
  4022b5:	b8 8b ca 90 c3       	mov    $0xc390ca8b,%eax
  4022ba:	c3                   	retq   

00000000004022bb <addval_313>:
  4022bb:	f3 0f 1e fa          	endbr64 
  4022bf:	8d 87 ae 48 89 e0    	lea    -0x1f76b752(%rdi),%eax
  4022c5:	c3                   	retq   

00000000004022c6 <addval_344>:
  4022c6:	f3 0f 1e fa          	endbr64 
  4022ca:	8d 87 89 c1 90 c3    	lea    -0x3c6f3e77(%rdi),%eax
  4022d0:	c3                   	retq   

00000000004022d1 <addval_478>:
  4022d1:	f3 0f 1e fa          	endbr64 
  4022d5:	8d 87 81 d6 84 db    	lea    -0x247b297f(%rdi),%eax
  4022db:	c3                   	retq   

00000000004022dc <getval_475>:
  4022dc:	f3 0f 1e fa          	endbr64 
  4022e0:	b8 99 ca 20 c0       	mov    $0xc020ca99,%eax
  4022e5:	c3                   	retq   

00000000004022e6 <getval_216>:
  4022e6:	f3 0f 1e fa          	endbr64 
  4022ea:	b8 89 ca 90 90       	mov    $0x9090ca89,%eax
  4022ef:	c3                   	retq   

00000000004022f0 <setval_309>:
  4022f0:	f3 0f 1e fa          	endbr64 
  4022f4:	c7 07 89 c1 91 c3    	movl   $0xc391c189,(%rdi)
  4022fa:	c3                   	retq   

00000000004022fb <setval_488>:
  4022fb:	f3 0f 1e fa          	endbr64 
  4022ff:	c7 07 81 ca 90 90    	movl   $0x9090ca81,(%rdi)
  402305:	c3                   	retq   

0000000000402306 <setval_222>:
  402306:	f3 0f 1e fa          	endbr64 
  40230a:	c7 07 09 ca 08 c0    	movl   $0xc008ca09,(%rdi)
  402310:	c3                   	retq   

0000000000402311 <setval_438>:
  402311:	f3 0f 1e fa          	endbr64 
  402315:	c7 07 4a 89 e0 c3    	movl   $0xc3e0894a,(%rdi)
  40231b:	c3                   	retq   

000000000040231c <setval_345>:
  40231c:	f3 0f 1e fa          	endbr64 
  402320:	c7 07 c9 d6 08 c0    	movl   $0xc008d6c9,(%rdi)
  402326:	c3                   	retq   

0000000000402327 <setval_306>:
  402327:	f3 0f 1e fa          	endbr64 
  40232b:	c7 07 88 d6 08 c0    	movl   $0xc008d688,(%rdi)
  402331:	c3                   	retq   

0000000000402332 <setval_373>:
  402332:	f3 0f 1e fa          	endbr64 
  402336:	c7 07 89 c1 90 c1    	movl   $0xc190c189,(%rdi)
  40233c:	c3                   	retq   

000000000040233d <getval_288>:
  40233d:	f3 0f 1e fa          	endbr64 
  402341:	b8 89 ca 90 90       	mov    $0x9090ca89,%eax
  402346:	c3                   	retq   

0000000000402347 <addval_338>:
  402347:	f3 0f 1e fa          	endbr64 
  40234b:	8d 87 89 c1 c3 46    	lea    0x46c3c189(%rdi),%eax
  402351:	c3                   	retq   

0000000000402352 <setval_487>:
  402352:	f3 0f 1e fa          	endbr64 
  402356:	c7 07 48 89 e0 c2    	movl   $0xc2e08948,(%rdi)
  40235c:	c3                   	retq   

000000000040235d <addval_343>:
  40235d:	f3 0f 1e fa          	endbr64 
  402361:	8d 87 48 8d e0 c3    	lea    -0x3c1f72b8(%rdi),%eax
  402367:	c3                   	retq   

0000000000402368 <setval_194>:
  402368:	f3 0f 1e fa          	endbr64 
  40236c:	c7 07 89 c1 28 c0    	movl   $0xc028c189,(%rdi)
  402372:	c3                   	retq   

0000000000402373 <setval_206>:
  402373:	f3 0f 1e fa          	endbr64 
  402377:	c7 07 a9 c1 20 db    	movl   $0xdb20c1a9,(%rdi)
  40237d:	c3                   	retq   

000000000040237e <setval_405>:
  40237e:	f3 0f 1e fa          	endbr64 
  402382:	c7 07 48 89 e0 c1    	movl   $0xc1e08948,(%rdi)
  402388:	c3                   	retq   

0000000000402389 <addval_132>:
  402389:	f3 0f 1e fa          	endbr64 
  40238d:	8d 87 c9 ca c3 47    	lea    0x47c3cac9(%rdi),%eax
  402393:	c3                   	retq   

0000000000402394 <getval_341>:
  402394:	f3 0f 1e fa          	endbr64 
  402398:	b8 8b c1 08 c9       	mov    $0xc908c18b,%eax
  40239d:	c3                   	retq   

000000000040239e <addval_146>:
  40239e:	f3 0f 1e fa          	endbr64 
  4023a2:	8d 87 89 d6 38 c0    	lea    -0x3fc72977(%rdi),%eax
  4023a8:	c3                   	retq   

00000000004023a9 <addval_140>:
  4023a9:	f3 0f 1e fa          	endbr64 
  4023ad:	8d 87 48 89 e0 c3    	lea    -0x3c1f76b8(%rdi),%eax
  4023b3:	c3                   	retq   

00000000004023b4 <getval_111>:
  4023b4:	f3 0f 1e fa          	endbr64 
  4023b8:	b8 e9 99 d6 c3       	mov    $0xc3d699e9,%eax
  4023bd:	c3                   	retq   

00000000004023be <addval_120>:
  4023be:	f3 0f 1e fa          	endbr64 
  4023c2:	8d 87 0e a9 ca c3    	lea    -0x3c3556f2(%rdi),%eax
  4023c8:	c3                   	retq   

00000000004023c9 <addval_145>:
  4023c9:	f3 0f 1e fa          	endbr64 
  4023cd:	8d 87 48 89 e0 92    	lea    -0x6d1f76b8(%rdi),%eax
  4023d3:	c3                   	retq   

00000000004023d4 <end_farm>:
  4023d4:	f3 0f 1e fa          	endbr64 
  4023d8:	b8 01 00 00 00       	mov    $0x1,%eax
  4023dd:	c3                   	retq   

00000000004023de <save_char>:
  4023de:	8b 05 60 5d 00 00    	mov    0x5d60(%rip),%eax        # 408144 <gets_cnt>
  4023e4:	3d ff 03 00 00       	cmp    $0x3ff,%eax
  4023e9:	7f 4a                	jg     402435 <save_char+0x57>
  4023eb:	89 f9                	mov    %edi,%ecx
  4023ed:	c0 e9 04             	shr    $0x4,%cl
  4023f0:	8d 14 40             	lea    (%rax,%rax,2),%edx
  4023f3:	4c 8d 05 76 23 00 00 	lea    0x2376(%rip),%r8        # 404770 <trans_char>
  4023fa:	83 e1 0f             	and    $0xf,%ecx
  4023fd:	45 0f b6 0c 08       	movzbl (%r8,%rcx,1),%r9d
  402402:	48 8d 0d 37 51 00 00 	lea    0x5137(%rip),%rcx        # 407540 <gets_buf>
  402409:	48 63 f2             	movslq %edx,%rsi
  40240c:	44 88 0c 31          	mov    %r9b,(%rcx,%rsi,1)
  402410:	8d 72 01             	lea    0x1(%rdx),%esi
  402413:	83 e7 0f             	and    $0xf,%edi
  402416:	41 0f b6 3c 38       	movzbl (%r8,%rdi,1),%edi
  40241b:	48 63 f6             	movslq %esi,%rsi
  40241e:	40 88 3c 31          	mov    %dil,(%rcx,%rsi,1)
  402422:	83 c2 02             	add    $0x2,%edx
  402425:	48 63 d2             	movslq %edx,%rdx
  402428:	c6 04 11 20          	movb   $0x20,(%rcx,%rdx,1)
  40242c:	83 c0 01             	add    $0x1,%eax
  40242f:	89 05 0f 5d 00 00    	mov    %eax,0x5d0f(%rip)        # 408144 <gets_cnt>
  402435:	c3                   	retq   

0000000000402436 <save_term>:
  402436:	8b 05 08 5d 00 00    	mov    0x5d08(%rip),%eax        # 408144 <gets_cnt>
  40243c:	8d 04 40             	lea    (%rax,%rax,2),%eax
  40243f:	48 98                	cltq   
  402441:	48 8d 15 f8 50 00 00 	lea    0x50f8(%rip),%rdx        # 407540 <gets_buf>
  402448:	c6 04 02 00          	movb   $0x0,(%rdx,%rax,1)
  40244c:	c3                   	retq   

000000000040244d <check_fail>:
  40244d:	f3 0f 1e fa          	endbr64 
  402451:	50                   	push   %rax
  402452:	58                   	pop    %rax
  402453:	48 83 ec 08          	sub    $0x8,%rsp
  402457:	0f be 15 ea 5c 00 00 	movsbl 0x5cea(%rip),%edx        # 408148 <target_prefix>
  40245e:	4c 8d 05 db 50 00 00 	lea    0x50db(%rip),%r8        # 407540 <gets_buf>
  402465:	8b 0d ad 50 00 00    	mov    0x50ad(%rip),%ecx        # 407518 <check_level>
  40246b:	48 8d 35 bc 1f 00 00 	lea    0x1fbc(%rip),%rsi        # 40442e <_IO_stdin_used+0x42e>
  402472:	bf 01 00 00 00       	mov    $0x1,%edi
  402477:	b8 00 00 00 00       	mov    $0x0,%eax
  40247c:	e8 3f ef ff ff       	callq  4013c0 <__printf_chk@plt>
  402481:	bf 01 00 00 00       	mov    $0x1,%edi
  402486:	e8 85 ef ff ff       	callq  401410 <exit@plt>

000000000040248b <Gets>:
  40248b:	f3 0f 1e fa          	endbr64 
  40248f:	41 54                	push   %r12
  402491:	55                   	push   %rbp
  402492:	53                   	push   %rbx
  402493:	49 89 fc             	mov    %rdi,%r12
  402496:	c7 05 a4 5c 00 00 00 	movl   $0x0,0x5ca4(%rip)        # 408144 <gets_cnt>
  40249d:	00 00 00 
  4024a0:	48 89 fb             	mov    %rdi,%rbx
  4024a3:	48 8b 3d 66 50 00 00 	mov    0x5066(%rip),%rdi        # 407510 <infile>
  4024aa:	e8 91 ef ff ff       	callq  401440 <getc@plt>
  4024af:	83 f8 ff             	cmp    $0xffffffff,%eax
  4024b2:	74 18                	je     4024cc <Gets+0x41>
  4024b4:	83 f8 0a             	cmp    $0xa,%eax
  4024b7:	74 13                	je     4024cc <Gets+0x41>
  4024b9:	48 8d 6b 01          	lea    0x1(%rbx),%rbp
  4024bd:	88 03                	mov    %al,(%rbx)
  4024bf:	0f b6 f8             	movzbl %al,%edi
  4024c2:	e8 17 ff ff ff       	callq  4023de <save_char>
  4024c7:	48 89 eb             	mov    %rbp,%rbx
  4024ca:	eb d7                	jmp    4024a3 <Gets+0x18>
  4024cc:	c6 03 00             	movb   $0x0,(%rbx)
  4024cf:	b8 00 00 00 00       	mov    $0x0,%eax
  4024d4:	e8 5d ff ff ff       	callq  402436 <save_term>
  4024d9:	4c 89 e0             	mov    %r12,%rax
  4024dc:	5b                   	pop    %rbx
  4024dd:	5d                   	pop    %rbp
  4024de:	41 5c                	pop    %r12
  4024e0:	c3                   	retq   

00000000004024e1 <notify_server>:
  4024e1:	f3 0f 1e fa          	endbr64 
  4024e5:	55                   	push   %rbp
  4024e6:	53                   	push   %rbx
  4024e7:	4c 8d 9c 24 00 c0 ff 	lea    -0x4000(%rsp),%r11
  4024ee:	ff 
  4024ef:	48 81 ec 00 10 00 00 	sub    $0x1000,%rsp
  4024f6:	48 83 0c 24 00       	orq    $0x0,(%rsp)
  4024fb:	4c 39 dc             	cmp    %r11,%rsp
  4024fe:	75 ef                	jne    4024ef <notify_server+0xe>
  402500:	48 83 ec 18          	sub    $0x18,%rsp
  402504:	64 48 8b 04 25 28 00 	mov    %fs:0x28,%rax
  40250b:	00 00 
  40250d:	48 89 84 24 08 40 00 	mov    %rax,0x4008(%rsp)
  402514:	00 
  402515:	31 c0                	xor    %eax,%eax
  402517:	83 3d 0a 50 00 00 00 	cmpl   $0x0,0x500a(%rip)        # 407528 <is_checker>
  40251e:	0f 85 b7 01 00 00    	jne    4026db <notify_server+0x1fa>
  402524:	89 fb                	mov    %edi,%ebx
  402526:	81 3d 14 5c 00 00 9c 	cmpl   $0x1f9c,0x5c14(%rip)        # 408144 <gets_cnt>
  40252d:	1f 00 00 
  402530:	7f 18                	jg     40254a <notify_server+0x69>
  402532:	0f be 05 0f 5c 00 00 	movsbl 0x5c0f(%rip),%eax        # 408148 <target_prefix>
  402539:	83 3d 60 4f 00 00 00 	cmpl   $0x0,0x4f60(%rip)        # 4074a0 <notify>
  402540:	74 23                	je     402565 <notify_server+0x84>
  402542:	8b 15 d8 4f 00 00    	mov    0x4fd8(%rip),%edx        # 407520 <authkey>
  402548:	eb 20                	jmp    40256a <notify_server+0x89>
  40254a:	48 8d 35 07 20 00 00 	lea    0x2007(%rip),%rsi        # 404558 <_IO_stdin_used+0x558>
  402551:	bf 01 00 00 00       	mov    $0x1,%edi
  402556:	e8 65 ee ff ff       	callq  4013c0 <__printf_chk@plt>
  40255b:	bf 01 00 00 00       	mov    $0x1,%edi
  402560:	e8 ab ee ff ff       	callq  401410 <exit@plt>
  402565:	ba ff ff ff ff       	mov    $0xffffffff,%edx
  40256a:	85 db                	test   %ebx,%ebx
  40256c:	0f 84 9b 00 00 00    	je     40260d <notify_server+0x12c>
  402572:	48 8d 2d d0 1e 00 00 	lea    0x1ed0(%rip),%rbp        # 404449 <_IO_stdin_used+0x449>
  402579:	48 89 e7             	mov    %rsp,%rdi
  40257c:	48 8d 0d bd 4f 00 00 	lea    0x4fbd(%rip),%rcx        # 407540 <gets_buf>
  402583:	51                   	push   %rcx
  402584:	56                   	push   %rsi
  402585:	50                   	push   %rax
  402586:	52                   	push   %rdx
  402587:	49 89 e9             	mov    %rbp,%r9
  40258a:	44 8b 05 bf 4b 00 00 	mov    0x4bbf(%rip),%r8d        # 407150 <target_id>
  402591:	48 8d 0d b6 1e 00 00 	lea    0x1eb6(%rip),%rcx        # 40444e <_IO_stdin_used+0x44e>
  402598:	ba 00 20 00 00       	mov    $0x2000,%edx
  40259d:	be 01 00 00 00       	mov    $0x1,%esi
  4025a2:	b8 00 00 00 00       	mov    $0x0,%eax
  4025a7:	e8 a4 ee ff ff       	callq  401450 <__sprintf_chk@plt>
  4025ac:	48 83 c4 20          	add    $0x20,%rsp
  4025b0:	83 3d e9 4e 00 00 00 	cmpl   $0x0,0x4ee9(%rip)        # 4074a0 <notify>
  4025b7:	0f 84 95 00 00 00    	je     402652 <notify_server+0x171>
  4025bd:	48 89 e1             	mov    %rsp,%rcx
  4025c0:	4c 8d 8c 24 00 20 00 	lea    0x2000(%rsp),%r9
  4025c7:	00 
  4025c8:	41 b8 00 00 00 00    	mov    $0x0,%r8d
  4025ce:	48 8b 15 93 4b 00 00 	mov    0x4b93(%rip),%rdx        # 407168 <lab>
  4025d5:	48 8b 35 94 4b 00 00 	mov    0x4b94(%rip),%rsi        # 407170 <course>
  4025dc:	48 8b 3d 7d 4b 00 00 	mov    0x4b7d(%rip),%rdi        # 407160 <user_id>
  4025e3:	e8 7f 12 00 00       	callq  403867 <driver_post>
  4025e8:	85 c0                	test   %eax,%eax
  4025ea:	78 2d                	js     402619 <notify_server+0x138>
  4025ec:	85 db                	test   %ebx,%ebx
  4025ee:	74 51                	je     402641 <notify_server+0x160>
  4025f0:	48 8d 3d 91 1f 00 00 	lea    0x1f91(%rip),%rdi        # 404588 <_IO_stdin_used+0x588>
  4025f7:	e8 b4 ec ff ff       	callq  4012b0 <puts@plt>
  4025fc:	48 8d 3d 73 1e 00 00 	lea    0x1e73(%rip),%rdi        # 404476 <_IO_stdin_used+0x476>
  402603:	e8 a8 ec ff ff       	callq  4012b0 <puts@plt>
  402608:	e9 ce 00 00 00       	jmpq   4026db <notify_server+0x1fa>
  40260d:	48 8d 2d 30 1e 00 00 	lea    0x1e30(%rip),%rbp        # 404444 <_IO_stdin_used+0x444>
  402614:	e9 60 ff ff ff       	jmpq   402579 <notify_server+0x98>
  402619:	48 8d 94 24 00 20 00 	lea    0x2000(%rsp),%rdx
  402620:	00 
  402621:	48 8d 35 42 1e 00 00 	lea    0x1e42(%rip),%rsi        # 40446a <_IO_stdin_used+0x46a>
  402628:	bf 01 00 00 00       	mov    $0x1,%edi
  40262d:	b8 00 00 00 00       	mov    $0x0,%eax
  402632:	e8 89 ed ff ff       	callq  4013c0 <__printf_chk@plt>
  402637:	bf 01 00 00 00       	mov    $0x1,%edi
  40263c:	e8 cf ed ff ff       	callq  401410 <exit@plt>
  402641:	48 8d 3d 38 1e 00 00 	lea    0x1e38(%rip),%rdi        # 404480 <_IO_stdin_used+0x480>
  402648:	e8 63 ec ff ff       	callq  4012b0 <puts@plt>
  40264d:	e9 89 00 00 00       	jmpq   4026db <notify_server+0x1fa>
  402652:	48 89 ea             	mov    %rbp,%rdx
  402655:	48 8d 35 64 1f 00 00 	lea    0x1f64(%rip),%rsi        # 4045c0 <_IO_stdin_used+0x5c0>
  40265c:	bf 01 00 00 00       	mov    $0x1,%edi
  402661:	b8 00 00 00 00       	mov    $0x0,%eax
  402666:	e8 55 ed ff ff       	callq  4013c0 <__printf_chk@plt>
  40266b:	48 8b 15 ee 4a 00 00 	mov    0x4aee(%rip),%rdx        # 407160 <user_id>
  402672:	48 8d 35 0e 1e 00 00 	lea    0x1e0e(%rip),%rsi        # 404487 <_IO_stdin_used+0x487>
  402679:	bf 01 00 00 00       	mov    $0x1,%edi
  40267e:	b8 00 00 00 00       	mov    $0x0,%eax
  402683:	e8 38 ed ff ff       	callq  4013c0 <__printf_chk@plt>
  402688:	48 8b 15 e1 4a 00 00 	mov    0x4ae1(%rip),%rdx        # 407170 <course>
  40268f:	48 8d 35 fe 1d 00 00 	lea    0x1dfe(%rip),%rsi        # 404494 <_IO_stdin_used+0x494>
  402696:	bf 01 00 00 00       	mov    $0x1,%edi
  40269b:	b8 00 00 00 00       	mov    $0x0,%eax
  4026a0:	e8 1b ed ff ff       	callq  4013c0 <__printf_chk@plt>
  4026a5:	48 8b 15 bc 4a 00 00 	mov    0x4abc(%rip),%rdx        # 407168 <lab>
  4026ac:	48 8d 35 ed 1d 00 00 	lea    0x1ded(%rip),%rsi        # 4044a0 <_IO_stdin_used+0x4a0>
  4026b3:	bf 01 00 00 00       	mov    $0x1,%edi
  4026b8:	b8 00 00 00 00       	mov    $0x0,%eax
  4026bd:	e8 fe ec ff ff       	callq  4013c0 <__printf_chk@plt>
  4026c2:	48 89 e2             	mov    %rsp,%rdx
  4026c5:	48 8d 35 dd 1d 00 00 	lea    0x1ddd(%rip),%rsi        # 4044a9 <_IO_stdin_used+0x4a9>
  4026cc:	bf 01 00 00 00       	mov    $0x1,%edi
  4026d1:	b8 00 00 00 00       	mov    $0x0,%eax
  4026d6:	e8 e5 ec ff ff       	callq  4013c0 <__printf_chk@plt>
  4026db:	48 8b 84 24 08 40 00 	mov    0x4008(%rsp),%rax
  4026e2:	00 
  4026e3:	64 48 33 04 25 28 00 	xor    %fs:0x28,%rax
  4026ea:	00 00 
  4026ec:	75 0a                	jne    4026f8 <notify_server+0x217>
  4026ee:	48 81 c4 18 40 00 00 	add    $0x4018,%rsp
  4026f5:	5b                   	pop    %rbx
  4026f6:	5d                   	pop    %rbp
  4026f7:	c3                   	retq   
  4026f8:	e8 72 02 00 00       	callq  40296f <__stack_chk_fail>

00000000004026fd <validate>:
  4026fd:	f3 0f 1e fa          	endbr64 
  402701:	53                   	push   %rbx
  402702:	89 fb                	mov    %edi,%ebx
  402704:	83 3d 1d 4e 00 00 00 	cmpl   $0x0,0x4e1d(%rip)        # 407528 <is_checker>
  40270b:	74 79                	je     402786 <validate+0x89>
  40270d:	39 3d 09 4e 00 00    	cmp    %edi,0x4e09(%rip)        # 40751c <vlevel>
  402713:	75 39                	jne    40274e <validate+0x51>
  402715:	8b 15 fd 4d 00 00    	mov    0x4dfd(%rip),%edx        # 407518 <check_level>
  40271b:	39 fa                	cmp    %edi,%edx
  40271d:	75 45                	jne    402764 <validate+0x67>
  40271f:	0f be 0d 22 5a 00 00 	movsbl 0x5a22(%rip),%ecx        # 408148 <target_prefix>
  402726:	4c 8d 0d 13 4e 00 00 	lea    0x4e13(%rip),%r9        # 407540 <gets_buf>
  40272d:	41 89 f8             	mov    %edi,%r8d
  402730:	8b 15 ea 4d 00 00    	mov    0x4dea(%rip),%edx        # 407520 <authkey>
  402736:	48 8d 35 d3 1e 00 00 	lea    0x1ed3(%rip),%rsi        # 404610 <_IO_stdin_used+0x610>
  40273d:	bf 01 00 00 00       	mov    $0x1,%edi
  402742:	b8 00 00 00 00       	mov    $0x0,%eax
  402747:	e8 74 ec ff ff       	callq  4013c0 <__printf_chk@plt>
  40274c:	5b                   	pop    %rbx
  40274d:	c3                   	retq   
  40274e:	48 8d 3d 60 1d 00 00 	lea    0x1d60(%rip),%rdi        # 4044b5 <_IO_stdin_used+0x4b5>
  402755:	e8 56 eb ff ff       	callq  4012b0 <puts@plt>
  40275a:	b8 00 00 00 00       	mov    $0x0,%eax
  40275f:	e8 e9 fc ff ff       	callq  40244d <check_fail>
  402764:	89 f9                	mov    %edi,%ecx
  402766:	48 8d 35 7b 1e 00 00 	lea    0x1e7b(%rip),%rsi        # 4045e8 <_IO_stdin_used+0x5e8>
  40276d:	bf 01 00 00 00       	mov    $0x1,%edi
  402772:	b8 00 00 00 00       	mov    $0x0,%eax
  402777:	e8 44 ec ff ff       	callq  4013c0 <__printf_chk@plt>
  40277c:	b8 00 00 00 00       	mov    $0x0,%eax
  402781:	e8 c7 fc ff ff       	callq  40244d <check_fail>
  402786:	39 3d 90 4d 00 00    	cmp    %edi,0x4d90(%rip)        # 40751c <vlevel>
  40278c:	74 1a                	je     4027a8 <validate+0xab>
  40278e:	48 8d 3d 20 1d 00 00 	lea    0x1d20(%rip),%rdi        # 4044b5 <_IO_stdin_used+0x4b5>
  402795:	e8 16 eb ff ff       	callq  4012b0 <puts@plt>
  40279a:	89 de                	mov    %ebx,%esi
  40279c:	bf 00 00 00 00       	mov    $0x0,%edi
  4027a1:	e8 3b fd ff ff       	callq  4024e1 <notify_server>
  4027a6:	eb a4                	jmp    40274c <validate+0x4f>
  4027a8:	0f be 0d 99 59 00 00 	movsbl 0x5999(%rip),%ecx        # 408148 <target_prefix>
  4027af:	89 fa                	mov    %edi,%edx
  4027b1:	48 8d 35 80 1e 00 00 	lea    0x1e80(%rip),%rsi        # 404638 <_IO_stdin_used+0x638>
  4027b8:	bf 01 00 00 00       	mov    $0x1,%edi
  4027bd:	b8 00 00 00 00       	mov    $0x0,%eax
  4027c2:	e8 f9 eb ff ff       	callq  4013c0 <__printf_chk@plt>
  4027c7:	89 de                	mov    %ebx,%esi
  4027c9:	bf 01 00 00 00       	mov    $0x1,%edi
  4027ce:	e8 0e fd ff ff       	callq  4024e1 <notify_server>
  4027d3:	e9 74 ff ff ff       	jmpq   40274c <validate+0x4f>

00000000004027d8 <fail>:
  4027d8:	f3 0f 1e fa          	endbr64 
  4027dc:	48 83 ec 08          	sub    $0x8,%rsp
  4027e0:	83 3d 41 4d 00 00 00 	cmpl   $0x0,0x4d41(%rip)        # 407528 <is_checker>
  4027e7:	75 11                	jne    4027fa <fail+0x22>
  4027e9:	89 fe                	mov    %edi,%esi
  4027eb:	bf 00 00 00 00       	mov    $0x0,%edi
  4027f0:	e8 ec fc ff ff       	callq  4024e1 <notify_server>
  4027f5:	48 83 c4 08          	add    $0x8,%rsp
  4027f9:	c3                   	retq   
  4027fa:	b8 00 00 00 00       	mov    $0x0,%eax
  4027ff:	e8 49 fc ff ff       	callq  40244d <check_fail>

0000000000402804 <bushandler>:
  402804:	f3 0f 1e fa          	endbr64 
  402808:	50                   	push   %rax
  402809:	58                   	pop    %rax
  40280a:	48 83 ec 08          	sub    $0x8,%rsp
  40280e:	83 3d 13 4d 00 00 00 	cmpl   $0x0,0x4d13(%rip)        # 407528 <is_checker>
  402815:	74 16                	je     40282d <bushandler+0x29>
  402817:	48 8d 3d b5 1c 00 00 	lea    0x1cb5(%rip),%rdi        # 4044d3 <_IO_stdin_used+0x4d3>
  40281e:	e8 8d ea ff ff       	callq  4012b0 <puts@plt>
  402823:	b8 00 00 00 00       	mov    $0x0,%eax
  402828:	e8 20 fc ff ff       	callq  40244d <check_fail>
  40282d:	48 8d 3d 3c 1e 00 00 	lea    0x1e3c(%rip),%rdi        # 404670 <_IO_stdin_used+0x670>
  402834:	e8 77 ea ff ff       	callq  4012b0 <puts@plt>
  402839:	48 8d 3d 9d 1c 00 00 	lea    0x1c9d(%rip),%rdi        # 4044dd <_IO_stdin_used+0x4dd>
  402840:	e8 6b ea ff ff       	callq  4012b0 <puts@plt>
  402845:	be 00 00 00 00       	mov    $0x0,%esi
  40284a:	bf 00 00 00 00       	mov    $0x0,%edi
  40284f:	e8 8d fc ff ff       	callq  4024e1 <notify_server>
  402854:	bf 01 00 00 00       	mov    $0x1,%edi
  402859:	e8 b2 eb ff ff       	callq  401410 <exit@plt>

000000000040285e <seghandler>:
  40285e:	f3 0f 1e fa          	endbr64 
  402862:	50                   	push   %rax
  402863:	58                   	pop    %rax
  402864:	48 83 ec 08          	sub    $0x8,%rsp
  402868:	83 3d b9 4c 00 00 00 	cmpl   $0x0,0x4cb9(%rip)        # 407528 <is_checker>
  40286f:	74 16                	je     402887 <seghandler+0x29>
  402871:	48 8d 3d 7b 1c 00 00 	lea    0x1c7b(%rip),%rdi        # 4044f3 <_IO_stdin_used+0x4f3>
  402878:	e8 33 ea ff ff       	callq  4012b0 <puts@plt>
  40287d:	b8 00 00 00 00       	mov    $0x0,%eax
  402882:	e8 c6 fb ff ff       	callq  40244d <check_fail>
  402887:	48 8d 3d 02 1e 00 00 	lea    0x1e02(%rip),%rdi        # 404690 <_IO_stdin_used+0x690>
  40288e:	e8 1d ea ff ff       	callq  4012b0 <puts@plt>
  402893:	48 8d 3d 43 1c 00 00 	lea    0x1c43(%rip),%rdi        # 4044dd <_IO_stdin_used+0x4dd>
  40289a:	e8 11 ea ff ff       	callq  4012b0 <puts@plt>
  40289f:	be 00 00 00 00       	mov    $0x0,%esi
  4028a4:	bf 00 00 00 00       	mov    $0x0,%edi
  4028a9:	e8 33 fc ff ff       	callq  4024e1 <notify_server>
  4028ae:	bf 01 00 00 00       	mov    $0x1,%edi
  4028b3:	e8 58 eb ff ff       	callq  401410 <exit@plt>

00000000004028b8 <illegalhandler>:
  4028b8:	f3 0f 1e fa          	endbr64 
  4028bc:	50                   	push   %rax
  4028bd:	58                   	pop    %rax
  4028be:	48 83 ec 08          	sub    $0x8,%rsp
  4028c2:	83 3d 5f 4c 00 00 00 	cmpl   $0x0,0x4c5f(%rip)        # 407528 <is_checker>
  4028c9:	74 16                	je     4028e1 <illegalhandler+0x29>
  4028cb:	48 8d 3d 34 1c 00 00 	lea    0x1c34(%rip),%rdi        # 404506 <_IO_stdin_used+0x506>
  4028d2:	e8 d9 e9 ff ff       	callq  4012b0 <puts@plt>
  4028d7:	b8 00 00 00 00       	mov    $0x0,%eax
  4028dc:	e8 6c fb ff ff       	callq  40244d <check_fail>
  4028e1:	48 8d 3d d0 1d 00 00 	lea    0x1dd0(%rip),%rdi        # 4046b8 <_IO_stdin_used+0x6b8>
  4028e8:	e8 c3 e9 ff ff       	callq  4012b0 <puts@plt>
  4028ed:	48 8d 3d e9 1b 00 00 	lea    0x1be9(%rip),%rdi        # 4044dd <_IO_stdin_used+0x4dd>
  4028f4:	e8 b7 e9 ff ff       	callq  4012b0 <puts@plt>
  4028f9:	be 00 00 00 00       	mov    $0x0,%esi
  4028fe:	bf 00 00 00 00       	mov    $0x0,%edi
  402903:	e8 d9 fb ff ff       	callq  4024e1 <notify_server>
  402908:	bf 01 00 00 00       	mov    $0x1,%edi
  40290d:	e8 fe ea ff ff       	callq  401410 <exit@plt>

0000000000402912 <sigalrmhandler>:
  402912:	f3 0f 1e fa          	endbr64 
  402916:	50                   	push   %rax
  402917:	58                   	pop    %rax
  402918:	48 83 ec 08          	sub    $0x8,%rsp
  40291c:	83 3d 05 4c 00 00 00 	cmpl   $0x0,0x4c05(%rip)        # 407528 <is_checker>
  402923:	74 16                	je     40293b <sigalrmhandler+0x29>
  402925:	48 8d 3d ee 1b 00 00 	lea    0x1bee(%rip),%rdi        # 40451a <_IO_stdin_used+0x51a>
  40292c:	e8 7f e9 ff ff       	callq  4012b0 <puts@plt>
  402931:	b8 00 00 00 00       	mov    $0x0,%eax
  402936:	e8 12 fb ff ff       	callq  40244d <check_fail>
  40293b:	ba 02 00 00 00       	mov    $0x2,%edx
  402940:	48 8d 35 a1 1d 00 00 	lea    0x1da1(%rip),%rsi        # 4046e8 <_IO_stdin_used+0x6e8>
  402947:	bf 01 00 00 00       	mov    $0x1,%edi
  40294c:	b8 00 00 00 00       	mov    $0x0,%eax
  402951:	e8 6a ea ff ff       	callq  4013c0 <__printf_chk@plt>
  402956:	be 00 00 00 00       	mov    $0x0,%esi
  40295b:	bf 00 00 00 00       	mov    $0x0,%edi
  402960:	e8 7c fb ff ff       	callq  4024e1 <notify_server>
  402965:	bf 01 00 00 00       	mov    $0x1,%edi
  40296a:	e8 a1 ea ff ff       	callq  401410 <exit@plt>

000000000040296f <__stack_chk_fail>:
  40296f:	f3 0f 1e fa          	endbr64 
  402973:	50                   	push   %rax
  402974:	58                   	pop    %rax
  402975:	48 83 ec 08          	sub    $0x8,%rsp
  402979:	83 3d a8 4b 00 00 00 	cmpl   $0x0,0x4ba8(%rip)        # 407528 <is_checker>
  402980:	74 16                	je     402998 <__stack_chk_fail+0x29>
  402982:	48 8d 3d 99 1b 00 00 	lea    0x1b99(%rip),%rdi        # 404522 <_IO_stdin_used+0x522>
  402989:	e8 22 e9 ff ff       	callq  4012b0 <puts@plt>
  40298e:	b8 00 00 00 00       	mov    $0x0,%eax
  402993:	e8 b5 fa ff ff       	callq  40244d <check_fail>
  402998:	48 8d 3d 81 1d 00 00 	lea    0x1d81(%rip),%rdi        # 404720 <_IO_stdin_used+0x720>
  40299f:	e8 0c e9 ff ff       	callq  4012b0 <puts@plt>
  4029a4:	48 8d 3d 32 1b 00 00 	lea    0x1b32(%rip),%rdi        # 4044dd <_IO_stdin_used+0x4dd>
  4029ab:	e8 00 e9 ff ff       	callq  4012b0 <puts@plt>
  4029b0:	be 00 00 00 00       	mov    $0x0,%esi
  4029b5:	bf 00 00 00 00       	mov    $0x0,%edi
  4029ba:	e8 22 fb ff ff       	callq  4024e1 <notify_server>
  4029bf:	bf 01 00 00 00       	mov    $0x1,%edi
  4029c4:	e8 47 ea ff ff       	callq  401410 <exit@plt>

00000000004029c9 <launch>:
  4029c9:	f3 0f 1e fa          	endbr64 
  4029cd:	55                   	push   %rbp
  4029ce:	48 89 e5             	mov    %rsp,%rbp
  4029d1:	53                   	push   %rbx
  4029d2:	48 83 ec 18          	sub    $0x18,%rsp
  4029d6:	48 89 fa             	mov    %rdi,%rdx
  4029d9:	89 f3                	mov    %esi,%ebx
  4029db:	64 48 8b 04 25 28 00 	mov    %fs:0x28,%rax
  4029e2:	00 00 
  4029e4:	48 89 45 e8          	mov    %rax,-0x18(%rbp)
  4029e8:	31 c0                	xor    %eax,%eax
  4029ea:	48 8d 47 17          	lea    0x17(%rdi),%rax
  4029ee:	48 89 c1             	mov    %rax,%rcx
  4029f1:	48 83 e1 f0          	and    $0xfffffffffffffff0,%rcx
  4029f5:	48 25 00 f0 ff ff    	and    $0xfffffffffffff000,%rax
  4029fb:	48 89 e6             	mov    %rsp,%rsi
  4029fe:	48 29 c6             	sub    %rax,%rsi
  402a01:	48 89 f0             	mov    %rsi,%rax
  402a04:	48 39 c4             	cmp    %rax,%rsp
  402a07:	74 12                	je     402a1b <launch+0x52>
  402a09:	48 81 ec 00 10 00 00 	sub    $0x1000,%rsp
  402a10:	48 83 8c 24 f8 0f 00 	orq    $0x0,0xff8(%rsp)
  402a17:	00 00 
  402a19:	eb e9                	jmp    402a04 <launch+0x3b>
  402a1b:	48 89 c8             	mov    %rcx,%rax
  402a1e:	25 ff 0f 00 00       	and    $0xfff,%eax
  402a23:	48 29 c4             	sub    %rax,%rsp
  402a26:	48 85 c0             	test   %rax,%rax
  402a29:	74 06                	je     402a31 <launch+0x68>
  402a2b:	48 83 4c 04 f8 00    	orq    $0x0,-0x8(%rsp,%rax,1)
  402a31:	48 8d 7c 24 0f       	lea    0xf(%rsp),%rdi
  402a36:	48 83 e7 f0          	and    $0xfffffffffffffff0,%rdi
  402a3a:	be f4 00 00 00       	mov    $0xf4,%esi
  402a3f:	e8 9c e8 ff ff       	callq  4012e0 <memset@plt>
  402a44:	48 8b 05 75 4a 00 00 	mov    0x4a75(%rip),%rax        # 4074c0 <stdin@@GLIBC_2.2.5>
  402a4b:	48 39 05 be 4a 00 00 	cmp    %rax,0x4abe(%rip)        # 407510 <infile>
  402a52:	74 42                	je     402a96 <launch+0xcd>
  402a54:	c7 05 be 4a 00 00 00 	movl   $0x0,0x4abe(%rip)        # 40751c <vlevel>
  402a5b:	00 00 00 
  402a5e:	85 db                	test   %ebx,%ebx
  402a60:	75 4c                	jne    402aae <launch+0xe5>
  402a62:	b8 00 00 00 00       	mov    $0x0,%eax
  402a67:	e8 8f f6 ff ff       	callq  4020fb <test>
  402a6c:	83 3d b5 4a 00 00 00 	cmpl   $0x0,0x4ab5(%rip)        # 407528 <is_checker>
  402a73:	75 45                	jne    402aba <launch+0xf1>
  402a75:	48 8d 3d cd 1a 00 00 	lea    0x1acd(%rip),%rdi        # 404549 <_IO_stdin_used+0x549>
  402a7c:	e8 2f e8 ff ff       	callq  4012b0 <puts@plt>
  402a81:	48 8b 45 e8          	mov    -0x18(%rbp),%rax
  402a85:	64 48 33 04 25 28 00 	xor    %fs:0x28,%rax
  402a8c:	00 00 
  402a8e:	75 40                	jne    402ad0 <launch+0x107>
  402a90:	48 8b 5d f8          	mov    -0x8(%rbp),%rbx
  402a94:	c9                   	leaveq 
  402a95:	c3                   	retq   
  402a96:	48 8d 35 94 1a 00 00 	lea    0x1a94(%rip),%rsi        # 404531 <_IO_stdin_used+0x531>
  402a9d:	bf 01 00 00 00       	mov    $0x1,%edi
  402aa2:	b8 00 00 00 00       	mov    $0x0,%eax
  402aa7:	e8 14 e9 ff ff       	callq  4013c0 <__printf_chk@plt>
  402aac:	eb a6                	jmp    402a54 <launch+0x8b>
  402aae:	b8 00 00 00 00       	mov    $0x0,%eax
  402ab3:	e8 72 f6 ff ff       	callq  40212a <test2>
  402ab8:	eb b2                	jmp    402a6c <launch+0xa3>
  402aba:	48 8d 3d 7d 1a 00 00 	lea    0x1a7d(%rip),%rdi        # 40453e <_IO_stdin_used+0x53e>
  402ac1:	e8 ea e7 ff ff       	callq  4012b0 <puts@plt>
  402ac6:	b8 00 00 00 00       	mov    $0x0,%eax
  402acb:	e8 7d f9 ff ff       	callq  40244d <check_fail>
  402ad0:	e8 9a fe ff ff       	callq  40296f <__stack_chk_fail>

0000000000402ad5 <stable_launch>:
  402ad5:	f3 0f 1e fa          	endbr64 
  402ad9:	55                   	push   %rbp
  402ada:	53                   	push   %rbx
  402adb:	48 83 ec 08          	sub    $0x8,%rsp
  402adf:	89 f5                	mov    %esi,%ebp
  402ae1:	48 89 3d 20 4a 00 00 	mov    %rdi,0x4a20(%rip)        # 407508 <global_offset>
  402ae8:	41 b9 00 00 00 00    	mov    $0x0,%r9d
  402aee:	41 b8 00 00 00 00    	mov    $0x0,%r8d
  402af4:	b9 32 01 00 00       	mov    $0x132,%ecx
  402af9:	ba 07 00 00 00       	mov    $0x7,%edx
  402afe:	be 00 00 10 00       	mov    $0x100000,%esi
  402b03:	bf 00 60 58 55       	mov    $0x55586000,%edi
  402b08:	e8 c3 e7 ff ff       	callq  4012d0 <mmap@plt>
  402b0d:	48 89 c3             	mov    %rax,%rbx
  402b10:	48 3d 00 60 58 55    	cmp    $0x55586000,%rax
  402b16:	75 4a                	jne    402b62 <stable_launch+0x8d>
  402b18:	48 8d 90 f8 ff 0f 00 	lea    0xffff8(%rax),%rdx
  402b1f:	48 89 15 2a 56 00 00 	mov    %rdx,0x562a(%rip)        # 408150 <stack_top>
  402b26:	48 89 e0             	mov    %rsp,%rax
  402b29:	48 89 d4             	mov    %rdx,%rsp
  402b2c:	48 89 c2             	mov    %rax,%rdx
  402b2f:	48 89 15 ca 49 00 00 	mov    %rdx,0x49ca(%rip)        # 407500 <global_save_stack>
  402b36:	89 ee                	mov    %ebp,%esi
  402b38:	48 8b 3d c9 49 00 00 	mov    0x49c9(%rip),%rdi        # 407508 <global_offset>
  402b3f:	e8 85 fe ff ff       	callq  4029c9 <launch>
  402b44:	48 8b 05 b5 49 00 00 	mov    0x49b5(%rip),%rax        # 407500 <global_save_stack>
  402b4b:	48 89 c4             	mov    %rax,%rsp
  402b4e:	be 00 00 10 00       	mov    $0x100000,%esi
  402b53:	48 89 df             	mov    %rbx,%rdi
  402b56:	e8 55 e8 ff ff       	callq  4013b0 <munmap@plt>
  402b5b:	48 83 c4 08          	add    $0x8,%rsp
  402b5f:	5b                   	pop    %rbx
  402b60:	5d                   	pop    %rbp
  402b61:	c3                   	retq   
  402b62:	be 00 00 10 00       	mov    $0x100000,%esi
  402b67:	48 89 c7             	mov    %rax,%rdi
  402b6a:	e8 41 e8 ff ff       	callq  4013b0 <munmap@plt>
  402b6f:	b9 00 60 58 55       	mov    $0x55586000,%ecx
  402b74:	48 8d 15 cd 1b 00 00 	lea    0x1bcd(%rip),%rdx        # 404748 <_IO_stdin_used+0x748>
  402b7b:	be 01 00 00 00       	mov    $0x1,%esi
  402b80:	48 8b 3d 59 49 00 00 	mov    0x4959(%rip),%rdi        # 4074e0 <stderr@@GLIBC_2.2.5>
  402b87:	b8 00 00 00 00       	mov    $0x0,%eax
  402b8c:	e8 9f e8 ff ff       	callq  401430 <__fprintf_chk@plt>
  402b91:	bf 01 00 00 00       	mov    $0x1,%edi
  402b96:	e8 75 e8 ff ff       	callq  401410 <exit@plt>

0000000000402b9b <rio_readinitb>:
  402b9b:	89 37                	mov    %esi,(%rdi)
  402b9d:	c7 47 04 00 00 00 00 	movl   $0x0,0x4(%rdi)
  402ba4:	48 8d 47 10          	lea    0x10(%rdi),%rax
  402ba8:	48 89 47 08          	mov    %rax,0x8(%rdi)
  402bac:	c3                   	retq   

0000000000402bad <sigalrm_handler>:
  402bad:	f3 0f 1e fa          	endbr64 
  402bb1:	50                   	push   %rax
  402bb2:	58                   	pop    %rax
  402bb3:	48 83 ec 08          	sub    $0x8,%rsp
  402bb7:	b9 00 00 00 00       	mov    $0x0,%ecx
  402bbc:	48 8d 15 bd 1b 00 00 	lea    0x1bbd(%rip),%rdx        # 404780 <trans_char+0x10>
  402bc3:	be 01 00 00 00       	mov    $0x1,%esi
  402bc8:	48 8b 3d 11 49 00 00 	mov    0x4911(%rip),%rdi        # 4074e0 <stderr@@GLIBC_2.2.5>
  402bcf:	b8 00 00 00 00       	mov    $0x0,%eax
  402bd4:	e8 57 e8 ff ff       	callq  401430 <__fprintf_chk@plt>
  402bd9:	bf 01 00 00 00       	mov    $0x1,%edi
  402bde:	e8 2d e8 ff ff       	callq  401410 <exit@plt>

0000000000402be3 <rio_writen>:
  402be3:	41 55                	push   %r13
  402be5:	41 54                	push   %r12
  402be7:	55                   	push   %rbp
  402be8:	53                   	push   %rbx
  402be9:	48 83 ec 08          	sub    $0x8,%rsp
  402bed:	41 89 fc             	mov    %edi,%r12d
  402bf0:	48 89 f5             	mov    %rsi,%rbp
  402bf3:	49 89 d5             	mov    %rdx,%r13
  402bf6:	48 89 d3             	mov    %rdx,%rbx
  402bf9:	eb 06                	jmp    402c01 <rio_writen+0x1e>
  402bfb:	48 29 c3             	sub    %rax,%rbx
  402bfe:	48 01 c5             	add    %rax,%rbp
  402c01:	48 85 db             	test   %rbx,%rbx
  402c04:	74 24                	je     402c2a <rio_writen+0x47>
  402c06:	48 89 da             	mov    %rbx,%rdx
  402c09:	48 89 ee             	mov    %rbp,%rsi
  402c0c:	44 89 e7             	mov    %r12d,%edi
  402c0f:	e8 ac e6 ff ff       	callq  4012c0 <write@plt>
  402c14:	48 85 c0             	test   %rax,%rax
  402c17:	7f e2                	jg     402bfb <rio_writen+0x18>
  402c19:	e8 42 e6 ff ff       	callq  401260 <__errno_location@plt>
  402c1e:	83 38 04             	cmpl   $0x4,(%rax)
  402c21:	75 15                	jne    402c38 <rio_writen+0x55>
  402c23:	b8 00 00 00 00       	mov    $0x0,%eax
  402c28:	eb d1                	jmp    402bfb <rio_writen+0x18>
  402c2a:	4c 89 e8             	mov    %r13,%rax
  402c2d:	48 83 c4 08          	add    $0x8,%rsp
  402c31:	5b                   	pop    %rbx
  402c32:	5d                   	pop    %rbp
  402c33:	41 5c                	pop    %r12
  402c35:	41 5d                	pop    %r13
  402c37:	c3                   	retq   
  402c38:	48 c7 c0 ff ff ff ff 	mov    $0xffffffffffffffff,%rax
  402c3f:	eb ec                	jmp    402c2d <rio_writen+0x4a>

0000000000402c41 <rio_read>:
  402c41:	41 55                	push   %r13
  402c43:	41 54                	push   %r12
  402c45:	55                   	push   %rbp
  402c46:	53                   	push   %rbx
  402c47:	48 83 ec 08          	sub    $0x8,%rsp
  402c4b:	48 89 fb             	mov    %rdi,%rbx
  402c4e:	49 89 f5             	mov    %rsi,%r13
  402c51:	49 89 d4             	mov    %rdx,%r12
  402c54:	eb 17                	jmp    402c6d <rio_read+0x2c>
  402c56:	e8 05 e6 ff ff       	callq  401260 <__errno_location@plt>
  402c5b:	83 38 04             	cmpl   $0x4,(%rax)
  402c5e:	74 0d                	je     402c6d <rio_read+0x2c>
  402c60:	48 c7 c0 ff ff ff ff 	mov    $0xffffffffffffffff,%rax
  402c67:	eb 54                	jmp    402cbd <rio_read+0x7c>
  402c69:	48 89 6b 08          	mov    %rbp,0x8(%rbx)
  402c6d:	8b 6b 04             	mov    0x4(%rbx),%ebp
  402c70:	85 ed                	test   %ebp,%ebp
  402c72:	7f 23                	jg     402c97 <rio_read+0x56>
  402c74:	48 8d 6b 10          	lea    0x10(%rbx),%rbp
  402c78:	8b 3b                	mov    (%rbx),%edi
  402c7a:	ba 00 20 00 00       	mov    $0x2000,%edx
  402c7f:	48 89 ee             	mov    %rbp,%rsi
  402c82:	e8 89 e6 ff ff       	callq  401310 <read@plt>
  402c87:	89 43 04             	mov    %eax,0x4(%rbx)
  402c8a:	85 c0                	test   %eax,%eax
  402c8c:	78 c8                	js     402c56 <rio_read+0x15>
  402c8e:	75 d9                	jne    402c69 <rio_read+0x28>
  402c90:	b8 00 00 00 00       	mov    $0x0,%eax
  402c95:	eb 26                	jmp    402cbd <rio_read+0x7c>
  402c97:	89 e8                	mov    %ebp,%eax
  402c99:	4c 39 e0             	cmp    %r12,%rax
  402c9c:	72 03                	jb     402ca1 <rio_read+0x60>
  402c9e:	44 89 e5             	mov    %r12d,%ebp
  402ca1:	4c 63 e5             	movslq %ebp,%r12
  402ca4:	48 8b 73 08          	mov    0x8(%rbx),%rsi
  402ca8:	4c 89 e2             	mov    %r12,%rdx
  402cab:	4c 89 ef             	mov    %r13,%rdi
  402cae:	e8 bd e6 ff ff       	callq  401370 <memcpy@plt>
  402cb3:	4c 01 63 08          	add    %r12,0x8(%rbx)
  402cb7:	29 6b 04             	sub    %ebp,0x4(%rbx)
  402cba:	4c 89 e0             	mov    %r12,%rax
  402cbd:	48 83 c4 08          	add    $0x8,%rsp
  402cc1:	5b                   	pop    %rbx
  402cc2:	5d                   	pop    %rbp
  402cc3:	41 5c                	pop    %r12
  402cc5:	41 5d                	pop    %r13
  402cc7:	c3                   	retq   

0000000000402cc8 <rio_readlineb>:
  402cc8:	41 55                	push   %r13
  402cca:	41 54                	push   %r12
  402ccc:	55                   	push   %rbp
  402ccd:	53                   	push   %rbx
  402cce:	48 83 ec 18          	sub    $0x18,%rsp
  402cd2:	49 89 fd             	mov    %rdi,%r13
  402cd5:	48 89 f5             	mov    %rsi,%rbp
  402cd8:	49 89 d4             	mov    %rdx,%r12
  402cdb:	64 48 8b 04 25 28 00 	mov    %fs:0x28,%rax
  402ce2:	00 00 
  402ce4:	48 89 44 24 08       	mov    %rax,0x8(%rsp)
  402ce9:	31 c0                	xor    %eax,%eax
  402ceb:	bb 01 00 00 00       	mov    $0x1,%ebx
  402cf0:	eb 18                	jmp    402d0a <rio_readlineb+0x42>
  402cf2:	85 c0                	test   %eax,%eax
  402cf4:	75 65                	jne    402d5b <rio_readlineb+0x93>
  402cf6:	48 83 fb 01          	cmp    $0x1,%rbx
  402cfa:	75 3d                	jne    402d39 <rio_readlineb+0x71>
  402cfc:	b8 00 00 00 00       	mov    $0x0,%eax
  402d01:	eb 3d                	jmp    402d40 <rio_readlineb+0x78>
  402d03:	48 83 c3 01          	add    $0x1,%rbx
  402d07:	48 89 d5             	mov    %rdx,%rbp
  402d0a:	4c 39 e3             	cmp    %r12,%rbx
  402d0d:	73 2a                	jae    402d39 <rio_readlineb+0x71>
  402d0f:	48 8d 74 24 07       	lea    0x7(%rsp),%rsi
  402d14:	ba 01 00 00 00       	mov    $0x1,%edx
  402d19:	4c 89 ef             	mov    %r13,%rdi
  402d1c:	e8 20 ff ff ff       	callq  402c41 <rio_read>
  402d21:	83 f8 01             	cmp    $0x1,%eax
  402d24:	75 cc                	jne    402cf2 <rio_readlineb+0x2a>
  402d26:	48 8d 55 01          	lea    0x1(%rbp),%rdx
  402d2a:	0f b6 44 24 07       	movzbl 0x7(%rsp),%eax
  402d2f:	88 45 00             	mov    %al,0x0(%rbp)
  402d32:	3c 0a                	cmp    $0xa,%al
  402d34:	75 cd                	jne    402d03 <rio_readlineb+0x3b>
  402d36:	48 89 d5             	mov    %rdx,%rbp
  402d39:	c6 45 00 00          	movb   $0x0,0x0(%rbp)
  402d3d:	48 89 d8             	mov    %rbx,%rax
  402d40:	48 8b 4c 24 08       	mov    0x8(%rsp),%rcx
  402d45:	64 48 33 0c 25 28 00 	xor    %fs:0x28,%rcx
  402d4c:	00 00 
  402d4e:	75 14                	jne    402d64 <rio_readlineb+0x9c>
  402d50:	48 83 c4 18          	add    $0x18,%rsp
  402d54:	5b                   	pop    %rbx
  402d55:	5d                   	pop    %rbp
  402d56:	41 5c                	pop    %r12
  402d58:	41 5d                	pop    %r13
  402d5a:	c3                   	retq   
  402d5b:	48 c7 c0 ff ff ff ff 	mov    $0xffffffffffffffff,%rax
  402d62:	eb dc                	jmp    402d40 <rio_readlineb+0x78>
  402d64:	e8 06 fc ff ff       	callq  40296f <__stack_chk_fail>

0000000000402d69 <urlencode>:
  402d69:	41 54                	push   %r12
  402d6b:	55                   	push   %rbp
  402d6c:	53                   	push   %rbx
  402d6d:	48 83 ec 10          	sub    $0x10,%rsp
  402d71:	48 89 fb             	mov    %rdi,%rbx
  402d74:	48 89 f5             	mov    %rsi,%rbp
  402d77:	64 48 8b 04 25 28 00 	mov    %fs:0x28,%rax
  402d7e:	00 00 
  402d80:	48 89 44 24 08       	mov    %rax,0x8(%rsp)
  402d85:	31 c0                	xor    %eax,%eax
  402d87:	48 c7 c1 ff ff ff ff 	mov    $0xffffffffffffffff,%rcx
  402d8e:	f2 ae                	repnz scas %es:(%rdi),%al
  402d90:	48 f7 d1             	not    %rcx
  402d93:	8d 41 ff             	lea    -0x1(%rcx),%eax
  402d96:	eb 0f                	jmp    402da7 <urlencode+0x3e>
  402d98:	44 88 45 00          	mov    %r8b,0x0(%rbp)
  402d9c:	48 8d 6d 01          	lea    0x1(%rbp),%rbp
  402da0:	48 83 c3 01          	add    $0x1,%rbx
  402da4:	44 89 e0             	mov    %r12d,%eax
  402da7:	44 8d 60 ff          	lea    -0x1(%rax),%r12d
  402dab:	85 c0                	test   %eax,%eax
  402dad:	0f 84 a8 00 00 00    	je     402e5b <urlencode+0xf2>
  402db3:	44 0f b6 03          	movzbl (%rbx),%r8d
  402db7:	41 80 f8 2a          	cmp    $0x2a,%r8b
  402dbb:	0f 94 c2             	sete   %dl
  402dbe:	41 80 f8 2d          	cmp    $0x2d,%r8b
  402dc2:	0f 94 c0             	sete   %al
  402dc5:	08 c2                	or     %al,%dl
  402dc7:	75 cf                	jne    402d98 <urlencode+0x2f>
  402dc9:	41 80 f8 2e          	cmp    $0x2e,%r8b
  402dcd:	74 c9                	je     402d98 <urlencode+0x2f>
  402dcf:	41 80 f8 5f          	cmp    $0x5f,%r8b
  402dd3:	74 c3                	je     402d98 <urlencode+0x2f>
  402dd5:	41 8d 40 d0          	lea    -0x30(%r8),%eax
  402dd9:	3c 09                	cmp    $0x9,%al
  402ddb:	76 bb                	jbe    402d98 <urlencode+0x2f>
  402ddd:	41 8d 40 bf          	lea    -0x41(%r8),%eax
  402de1:	3c 19                	cmp    $0x19,%al
  402de3:	76 b3                	jbe    402d98 <urlencode+0x2f>
  402de5:	41 8d 40 9f          	lea    -0x61(%r8),%eax
  402de9:	3c 19                	cmp    $0x19,%al
  402deb:	76 ab                	jbe    402d98 <urlencode+0x2f>
  402ded:	41 80 f8 20          	cmp    $0x20,%r8b
  402df1:	74 56                	je     402e49 <urlencode+0xe0>
  402df3:	41 8d 40 e0          	lea    -0x20(%r8),%eax
  402df7:	3c 5f                	cmp    $0x5f,%al
  402df9:	0f 96 c2             	setbe  %dl
  402dfc:	41 80 f8 09          	cmp    $0x9,%r8b
  402e00:	0f 94 c0             	sete   %al
  402e03:	08 c2                	or     %al,%dl
  402e05:	74 4f                	je     402e56 <urlencode+0xed>
  402e07:	48 89 e7             	mov    %rsp,%rdi
  402e0a:	45 0f b6 c0          	movzbl %r8b,%r8d
  402e0e:	48 8d 0d 20 1a 00 00 	lea    0x1a20(%rip),%rcx        # 404835 <trans_char+0xc5>
  402e15:	ba 08 00 00 00       	mov    $0x8,%edx
  402e1a:	be 01 00 00 00       	mov    $0x1,%esi
  402e1f:	b8 00 00 00 00       	mov    $0x0,%eax
  402e24:	e8 27 e6 ff ff       	callq  401450 <__sprintf_chk@plt>
  402e29:	0f b6 04 24          	movzbl (%rsp),%eax
  402e2d:	88 45 00             	mov    %al,0x0(%rbp)
  402e30:	0f b6 44 24 01       	movzbl 0x1(%rsp),%eax
  402e35:	88 45 01             	mov    %al,0x1(%rbp)
  402e38:	0f b6 44 24 02       	movzbl 0x2(%rsp),%eax
  402e3d:	88 45 02             	mov    %al,0x2(%rbp)
  402e40:	48 8d 6d 03          	lea    0x3(%rbp),%rbp
  402e44:	e9 57 ff ff ff       	jmpq   402da0 <urlencode+0x37>
  402e49:	c6 45 00 2b          	movb   $0x2b,0x0(%rbp)
  402e4d:	48 8d 6d 01          	lea    0x1(%rbp),%rbp
  402e51:	e9 4a ff ff ff       	jmpq   402da0 <urlencode+0x37>
  402e56:	b8 ff ff ff ff       	mov    $0xffffffff,%eax
  402e5b:	48 8b 74 24 08       	mov    0x8(%rsp),%rsi
  402e60:	64 48 33 34 25 28 00 	xor    %fs:0x28,%rsi
  402e67:	00 00 
  402e69:	75 09                	jne    402e74 <urlencode+0x10b>
  402e6b:	48 83 c4 10          	add    $0x10,%rsp
  402e6f:	5b                   	pop    %rbx
  402e70:	5d                   	pop    %rbp
  402e71:	41 5c                	pop    %r12
  402e73:	c3                   	retq   
  402e74:	e8 f6 fa ff ff       	callq  40296f <__stack_chk_fail>

0000000000402e79 <submitr>:
  402e79:	f3 0f 1e fa          	endbr64 
  402e7d:	41 57                	push   %r15
  402e7f:	41 56                	push   %r14
  402e81:	41 55                	push   %r13
  402e83:	41 54                	push   %r12
  402e85:	55                   	push   %rbp
  402e86:	53                   	push   %rbx
  402e87:	4c 8d 9c 24 00 60 ff 	lea    -0xa000(%rsp),%r11
  402e8e:	ff 
  402e8f:	48 81 ec 00 10 00 00 	sub    $0x1000,%rsp
  402e96:	48 83 0c 24 00       	orq    $0x0,(%rsp)
  402e9b:	4c 39 dc             	cmp    %r11,%rsp
  402e9e:	75 ef                	jne    402e8f <submitr+0x16>
  402ea0:	48 83 ec 68          	sub    $0x68,%rsp
  402ea4:	49 89 fc             	mov    %rdi,%r12
  402ea7:	89 74 24 1c          	mov    %esi,0x1c(%rsp)
  402eab:	48 89 54 24 08       	mov    %rdx,0x8(%rsp)
  402eb0:	49 89 cd             	mov    %rcx,%r13
  402eb3:	4c 89 44 24 10       	mov    %r8,0x10(%rsp)
  402eb8:	4d 89 ce             	mov    %r9,%r14
  402ebb:	48 8b ac 24 a0 a0 00 	mov    0xa0a0(%rsp),%rbp
  402ec2:	00 
  402ec3:	64 48 8b 04 25 28 00 	mov    %fs:0x28,%rax
  402eca:	00 00 
  402ecc:	48 89 84 24 58 a0 00 	mov    %rax,0xa058(%rsp)
  402ed3:	00 
  402ed4:	31 c0                	xor    %eax,%eax
  402ed6:	c7 44 24 2c 00 00 00 	movl   $0x0,0x2c(%rsp)
  402edd:	00 
  402ede:	ba 00 00 00 00       	mov    $0x0,%edx
  402ee3:	be 01 00 00 00       	mov    $0x1,%esi
  402ee8:	bf 02 00 00 00       	mov    $0x2,%edi
  402eed:	e8 6e e5 ff ff       	callq  401460 <socket@plt>
  402ef2:	85 c0                	test   %eax,%eax
  402ef4:	0f 88 a5 02 00 00    	js     40319f <submitr+0x326>
  402efa:	89 c3                	mov    %eax,%ebx
  402efc:	4c 89 e7             	mov    %r12,%rdi
  402eff:	e8 3c e4 ff ff       	callq  401340 <gethostbyname@plt>
  402f04:	48 85 c0             	test   %rax,%rax
  402f07:	0f 84 de 02 00 00    	je     4031eb <submitr+0x372>
  402f0d:	4c 8d 7c 24 30       	lea    0x30(%rsp),%r15
  402f12:	48 c7 44 24 30 00 00 	movq   $0x0,0x30(%rsp)
  402f19:	00 00 
  402f1b:	48 c7 44 24 38 00 00 	movq   $0x0,0x38(%rsp)
  402f22:	00 00 
  402f24:	66 c7 44 24 30 02 00 	movw   $0x2,0x30(%rsp)
  402f2b:	48 63 50 14          	movslq 0x14(%rax),%rdx
  402f2f:	48 8b 40 18          	mov    0x18(%rax),%rax
  402f33:	48 8b 30             	mov    (%rax),%rsi
  402f36:	48 8d 7c 24 34       	lea    0x34(%rsp),%rdi
  402f3b:	b9 0c 00 00 00       	mov    $0xc,%ecx
  402f40:	e8 0b e4 ff ff       	callq  401350 <__memmove_chk@plt>
  402f45:	0f b7 74 24 1c       	movzwl 0x1c(%rsp),%esi
  402f4a:	66 c1 c6 08          	rol    $0x8,%si
  402f4e:	66 89 74 24 32       	mov    %si,0x32(%rsp)
  402f53:	ba 10 00 00 00       	mov    $0x10,%edx
  402f58:	4c 89 fe             	mov    %r15,%rsi
  402f5b:	89 df                	mov    %ebx,%edi
  402f5d:	e8 be e4 ff ff       	callq  401420 <connect@plt>
  402f62:	85 c0                	test   %eax,%eax
  402f64:	0f 88 f7 02 00 00    	js     403261 <submitr+0x3e8>
  402f6a:	48 c7 c6 ff ff ff ff 	mov    $0xffffffffffffffff,%rsi
  402f71:	b8 00 00 00 00       	mov    $0x0,%eax
  402f76:	48 89 f1             	mov    %rsi,%rcx
  402f79:	4c 89 f7             	mov    %r14,%rdi
  402f7c:	f2 ae                	repnz scas %es:(%rdi),%al
  402f7e:	48 89 ca             	mov    %rcx,%rdx
  402f81:	48 f7 d2             	not    %rdx
  402f84:	48 89 f1             	mov    %rsi,%rcx
  402f87:	48 8b 7c 24 08       	mov    0x8(%rsp),%rdi
  402f8c:	f2 ae                	repnz scas %es:(%rdi),%al
  402f8e:	48 f7 d1             	not    %rcx
  402f91:	49 89 c8             	mov    %rcx,%r8
  402f94:	48 89 f1             	mov    %rsi,%rcx
  402f97:	4c 89 ef             	mov    %r13,%rdi
  402f9a:	f2 ae                	repnz scas %es:(%rdi),%al
  402f9c:	48 f7 d1             	not    %rcx
  402f9f:	4d 8d 44 08 fe       	lea    -0x2(%r8,%rcx,1),%r8
  402fa4:	48 89 f1             	mov    %rsi,%rcx
  402fa7:	48 8b 7c 24 10       	mov    0x10(%rsp),%rdi
  402fac:	f2 ae                	repnz scas %es:(%rdi),%al
  402fae:	48 89 c8             	mov    %rcx,%rax
  402fb1:	48 f7 d0             	not    %rax
  402fb4:	49 8d 4c 00 ff       	lea    -0x1(%r8,%rax,1),%rcx
  402fb9:	48 8d 44 52 fd       	lea    -0x3(%rdx,%rdx,2),%rax
  402fbe:	48 8d 84 01 80 00 00 	lea    0x80(%rcx,%rax,1),%rax
  402fc5:	00 
  402fc6:	48 3d 00 20 00 00    	cmp    $0x2000,%rax
  402fcc:	0f 87 f7 02 00 00    	ja     4032c9 <submitr+0x450>
  402fd2:	48 8d b4 24 50 40 00 	lea    0x4050(%rsp),%rsi
  402fd9:	00 
  402fda:	b9 00 04 00 00       	mov    $0x400,%ecx
  402fdf:	b8 00 00 00 00       	mov    $0x0,%eax
  402fe4:	48 89 f7             	mov    %rsi,%rdi
  402fe7:	f3 48 ab             	rep stos %rax,%es:(%rdi)
  402fea:	4c 89 f7             	mov    %r14,%rdi
  402fed:	e8 77 fd ff ff       	callq  402d69 <urlencode>
  402ff2:	85 c0                	test   %eax,%eax
  402ff4:	0f 88 42 03 00 00    	js     40333c <submitr+0x4c3>
  402ffa:	4c 8d bc 24 50 20 00 	lea    0x2050(%rsp),%r15
  403001:	00 
  403002:	48 83 ec 08          	sub    $0x8,%rsp
  403006:	41 54                	push   %r12
  403008:	48 8d 84 24 60 40 00 	lea    0x4060(%rsp),%rax
  40300f:	00 
  403010:	50                   	push   %rax
  403011:	41 55                	push   %r13
  403013:	4c 8b 4c 24 30       	mov    0x30(%rsp),%r9
  403018:	4c 8b 44 24 28       	mov    0x28(%rsp),%r8
  40301d:	48 8d 0d 84 17 00 00 	lea    0x1784(%rip),%rcx        # 4047a8 <trans_char+0x38>
  403024:	ba 00 20 00 00       	mov    $0x2000,%edx
  403029:	be 01 00 00 00       	mov    $0x1,%esi
  40302e:	4c 89 ff             	mov    %r15,%rdi
  403031:	b8 00 00 00 00       	mov    $0x0,%eax
  403036:	e8 15 e4 ff ff       	callq  401450 <__sprintf_chk@plt>
  40303b:	48 c7 c1 ff ff ff ff 	mov    $0xffffffffffffffff,%rcx
  403042:	b8 00 00 00 00       	mov    $0x0,%eax
  403047:	4c 89 ff             	mov    %r15,%rdi
  40304a:	f2 ae                	repnz scas %es:(%rdi),%al
  40304c:	48 f7 d1             	not    %rcx
  40304f:	48 8d 51 ff          	lea    -0x1(%rcx),%rdx
  403053:	48 83 c4 20          	add    $0x20,%rsp
  403057:	4c 89 fe             	mov    %r15,%rsi
  40305a:	89 df                	mov    %ebx,%edi
  40305c:	e8 82 fb ff ff       	callq  402be3 <rio_writen>
  403061:	48 85 c0             	test   %rax,%rax
  403064:	0f 88 5d 03 00 00    	js     4033c7 <submitr+0x54e>
  40306a:	4c 8d 64 24 40       	lea    0x40(%rsp),%r12
  40306f:	89 de                	mov    %ebx,%esi
  403071:	4c 89 e7             	mov    %r12,%rdi
  403074:	e8 22 fb ff ff       	callq  402b9b <rio_readinitb>
  403079:	48 8d b4 24 50 20 00 	lea    0x2050(%rsp),%rsi
  403080:	00 
  403081:	ba 00 20 00 00       	mov    $0x2000,%edx
  403086:	4c 89 e7             	mov    %r12,%rdi
  403089:	e8 3a fc ff ff       	callq  402cc8 <rio_readlineb>
  40308e:	48 85 c0             	test   %rax,%rax
  403091:	0f 8e 9c 03 00 00    	jle    403433 <submitr+0x5ba>
  403097:	48 8d 4c 24 2c       	lea    0x2c(%rsp),%rcx
  40309c:	48 8d 94 24 50 60 00 	lea    0x6050(%rsp),%rdx
  4030a3:	00 
  4030a4:	48 8d bc 24 50 20 00 	lea    0x2050(%rsp),%rdi
  4030ab:	00 
  4030ac:	4c 8d 84 24 50 80 00 	lea    0x8050(%rsp),%r8
  4030b3:	00 
  4030b4:	48 8d 35 81 17 00 00 	lea    0x1781(%rip),%rsi        # 40483c <trans_char+0xcc>
  4030bb:	b8 00 00 00 00       	mov    $0x0,%eax
  4030c0:	e8 db e2 ff ff       	callq  4013a0 <__isoc99_sscanf@plt>
  4030c5:	48 8d b4 24 50 20 00 	lea    0x2050(%rsp),%rsi
  4030cc:	00 
  4030cd:	b9 03 00 00 00       	mov    $0x3,%ecx
  4030d2:	48 8d 3d 7a 17 00 00 	lea    0x177a(%rip),%rdi        # 404853 <trans_char+0xe3>
  4030d9:	f3 a6                	repz cmpsb %es:(%rdi),%ds:(%rsi)
  4030db:	0f 97 c0             	seta   %al
  4030de:	1c 00                	sbb    $0x0,%al
  4030e0:	84 c0                	test   %al,%al
  4030e2:	0f 84 cb 03 00 00    	je     4034b3 <submitr+0x63a>
  4030e8:	48 8d b4 24 50 20 00 	lea    0x2050(%rsp),%rsi
  4030ef:	00 
  4030f0:	48 8d 7c 24 40       	lea    0x40(%rsp),%rdi
  4030f5:	ba 00 20 00 00       	mov    $0x2000,%edx
  4030fa:	e8 c9 fb ff ff       	callq  402cc8 <rio_readlineb>
  4030ff:	48 85 c0             	test   %rax,%rax
  403102:	7f c1                	jg     4030c5 <submitr+0x24c>
  403104:	48 b8 45 72 72 6f 72 	movabs $0x43203a726f727245,%rax
  40310b:	3a 20 43 
  40310e:	48 ba 6c 69 65 6e 74 	movabs $0x6e7520746e65696c,%rdx
  403115:	20 75 6e 
  403118:	48 89 45 00          	mov    %rax,0x0(%rbp)
  40311c:	48 89 55 08          	mov    %rdx,0x8(%rbp)
  403120:	48 b8 61 62 6c 65 20 	movabs $0x206f7420656c6261,%rax
  403127:	74 6f 20 
  40312a:	48 ba 72 65 61 64 20 	movabs $0x6165682064616572,%rdx
  403131:	68 65 61 
  403134:	48 89 45 10          	mov    %rax,0x10(%rbp)
  403138:	48 89 55 18          	mov    %rdx,0x18(%rbp)
  40313c:	48 b8 64 65 72 73 20 	movabs $0x6f72662073726564,%rax
  403143:	66 72 6f 
  403146:	48 ba 6d 20 41 75 74 	movabs $0x616c6f747541206d,%rdx
  40314d:	6f 6c 61 
  403150:	48 89 45 20          	mov    %rax,0x20(%rbp)
  403154:	48 89 55 28          	mov    %rdx,0x28(%rbp)
  403158:	48 b8 62 20 73 65 72 	movabs $0x7265767265732062,%rax
  40315f:	76 65 72 
  403162:	48 89 45 30          	mov    %rax,0x30(%rbp)
  403166:	c6 45 38 00          	movb   $0x0,0x38(%rbp)
  40316a:	89 df                	mov    %ebx,%edi
  40316c:	e8 8f e1 ff ff       	callq  401300 <close@plt>
  403171:	b8 ff ff ff ff       	mov    $0xffffffff,%eax
  403176:	48 8b 9c 24 58 a0 00 	mov    0xa058(%rsp),%rbx
  40317d:	00 
  40317e:	64 48 33 1c 25 28 00 	xor    %fs:0x28,%rbx
  403185:	00 00 
  403187:	0f 85 96 04 00 00    	jne    403623 <submitr+0x7aa>
  40318d:	48 81 c4 68 a0 00 00 	add    $0xa068,%rsp
  403194:	5b                   	pop    %rbx
  403195:	5d                   	pop    %rbp
  403196:	41 5c                	pop    %r12
  403198:	41 5d                	pop    %r13
  40319a:	41 5e                	pop    %r14
  40319c:	41 5f                	pop    %r15
  40319e:	c3                   	retq   
  40319f:	48 b8 45 72 72 6f 72 	movabs $0x43203a726f727245,%rax
  4031a6:	3a 20 43 
  4031a9:	48 ba 6c 69 65 6e 74 	movabs $0x6e7520746e65696c,%rdx
  4031b0:	20 75 6e 
  4031b3:	48 89 45 00          	mov    %rax,0x0(%rbp)
  4031b7:	48 89 55 08          	mov    %rdx,0x8(%rbp)
  4031bb:	48 b8 61 62 6c 65 20 	movabs $0x206f7420656c6261,%rax
  4031c2:	74 6f 20 
  4031c5:	48 ba 63 72 65 61 74 	movabs $0x7320657461657263,%rdx
  4031cc:	65 20 73 
  4031cf:	48 89 45 10          	mov    %rax,0x10(%rbp)
  4031d3:	48 89 55 18          	mov    %rdx,0x18(%rbp)
  4031d7:	c7 45 20 6f 63 6b 65 	movl   $0x656b636f,0x20(%rbp)
  4031de:	66 c7 45 24 74 00    	movw   $0x74,0x24(%rbp)
  4031e4:	b8 ff ff ff ff       	mov    $0xffffffff,%eax
  4031e9:	eb 8b                	jmp    403176 <submitr+0x2fd>
  4031eb:	48 b8 45 72 72 6f 72 	movabs $0x44203a726f727245,%rax
  4031f2:	3a 20 44 
  4031f5:	48 ba 4e 53 20 69 73 	movabs $0x6e7520736920534e,%rdx
  4031fc:	20 75 6e 
  4031ff:	48 89 45 00          	mov    %rax,0x0(%rbp)
  403203:	48 89 55 08          	mov    %rdx,0x8(%rbp)
  403207:	48 b8 61 62 6c 65 20 	movabs $0x206f7420656c6261,%rax
  40320e:	74 6f 20 
  403211:	48 ba 72 65 73 6f 6c 	movabs $0x2065766c6f736572,%rdx
  403218:	76 65 20 
  40321b:	48 89 45 10          	mov    %rax,0x10(%rbp)
  40321f:	48 89 55 18          	mov    %rdx,0x18(%rbp)
  403223:	48 b8 41 75 74 6f 6c 	movabs $0x2062616c6f747541,%rax
  40322a:	61 62 20 
  40322d:	48 ba 73 65 72 76 65 	movabs $0x6120726576726573,%rdx
  403234:	72 20 61 
  403237:	48 89 45 20          	mov    %rax,0x20(%rbp)
  40323b:	48 89 55 28          	mov    %rdx,0x28(%rbp)
  40323f:	c7 45 30 64 64 72 65 	movl   $0x65726464,0x30(%rbp)
  403246:	66 c7 45 34 73 73    	movw   $0x7373,0x34(%rbp)
  40324c:	c6 45 36 00          	movb   $0x0,0x36(%rbp)
  403250:	89 df                	mov    %ebx,%edi
  403252:	e8 a9 e0 ff ff       	callq  401300 <close@plt>
  403257:	b8 ff ff ff ff       	mov    $0xffffffff,%eax
  40325c:	e9 15 ff ff ff       	jmpq   403176 <submitr+0x2fd>
  403261:	48 b8 45 72 72 6f 72 	movabs $0x55203a726f727245,%rax
  403268:	3a 20 55 
  40326b:	48 ba 6e 61 62 6c 65 	movabs $0x6f7420656c62616e,%rdx
  403272:	20 74 6f 
  403275:	48 89 45 00          	mov    %rax,0x0(%rbp)
  403279:	48 89 55 08          	mov    %rdx,0x8(%rbp)
  40327d:	48 b8 20 63 6f 6e 6e 	movabs $0x7463656e6e6f6320,%rax
  403284:	65 63 74 
  403287:	48 ba 20 74 6f 20 74 	movabs $0x20656874206f7420,%rdx
  40328e:	68 65 20 
  403291:	48 89 45 10          	mov    %rax,0x10(%rbp)
  403295:	48 89 55 18          	mov    %rdx,0x18(%rbp)
  403299:	48 b8 41 75 74 6f 6c 	movabs $0x2062616c6f747541,%rax
  4032a0:	61 62 20 
  4032a3:	48 89 45 20          	mov    %rax,0x20(%rbp)
  4032a7:	c7 45 28 73 65 72 76 	movl   $0x76726573,0x28(%rbp)
  4032ae:	66 c7 45 2c 65 72    	movw   $0x7265,0x2c(%rbp)
  4032b4:	c6 45 2e 00          	movb   $0x0,0x2e(%rbp)
  4032b8:	89 df                	mov    %ebx,%edi
  4032ba:	e8 41 e0 ff ff       	callq  401300 <close@plt>
  4032bf:	b8 ff ff ff ff       	mov    $0xffffffff,%eax
  4032c4:	e9 ad fe ff ff       	jmpq   403176 <submitr+0x2fd>
  4032c9:	48 b8 45 72 72 6f 72 	movabs $0x52203a726f727245,%rax
  4032d0:	3a 20 52 
  4032d3:	48 ba 65 73 75 6c 74 	movabs $0x747320746c757365,%rdx
  4032da:	20 73 74 
  4032dd:	48 89 45 00          	mov    %rax,0x0(%rbp)
  4032e1:	48 89 55 08          	mov    %rdx,0x8(%rbp)
  4032e5:	48 b8 72 69 6e 67 20 	movabs $0x6f6f7420676e6972,%rax
  4032ec:	74 6f 6f 
  4032ef:	48 ba 20 6c 61 72 67 	movabs $0x202e656772616c20,%rdx
  4032f6:	65 2e 20 
  4032f9:	48 89 45 10          	mov    %rax,0x10(%rbp)
  4032fd:	48 89 55 18          	mov    %rdx,0x18(%rbp)
  403301:	48 b8 49 6e 63 72 65 	movabs $0x6573616572636e49,%rax
  403308:	61 73 65 
  40330b:	48 ba 20 53 55 42 4d 	movabs $0x5254494d42555320,%rdx
  403312:	49 54 52 
  403315:	48 89 45 20          	mov    %rax,0x20(%rbp)
  403319:	48 89 55 28          	mov    %rdx,0x28(%rbp)
  40331d:	48 b8 5f 4d 41 58 42 	movabs $0x46554258414d5f,%rax
  403324:	55 46 00 
  403327:	48 89 45 30          	mov    %rax,0x30(%rbp)
  40332b:	89 df                	mov    %ebx,%edi
  40332d:	e8 ce df ff ff       	callq  401300 <close@plt>
  403332:	b8 ff ff ff ff       	mov    $0xffffffff,%eax
  403337:	e9 3a fe ff ff       	jmpq   403176 <submitr+0x2fd>
  40333c:	48 b8 45 72 72 6f 72 	movabs $0x52203a726f727245,%rax
  403343:	3a 20 52 
  403346:	48 ba 65 73 75 6c 74 	movabs $0x747320746c757365,%rdx
  40334d:	20 73 74 
  403350:	48 89 45 00          	mov    %rax,0x0(%rbp)
  403354:	48 89 55 08          	mov    %rdx,0x8(%rbp)
  403358:	48 b8 72 69 6e 67 20 	movabs $0x6e6f6320676e6972,%rax
  40335f:	63 6f 6e 
  403362:	48 ba 74 61 69 6e 73 	movabs $0x6e6120736e696174,%rdx
  403369:	20 61 6e 
  40336c:	48 89 45 10          	mov    %rax,0x10(%rbp)
  403370:	48 89 55 18          	mov    %rdx,0x18(%rbp)
  403374:	48 b8 20 69 6c 6c 65 	movabs $0x6c6167656c6c6920,%rax
  40337b:	67 61 6c 
  40337e:	48 ba 20 6f 72 20 75 	movabs $0x72706e7520726f20,%rdx
  403385:	6e 70 72 
  403388:	48 89 45 20          	mov    %rax,0x20(%rbp)
  40338c:	48 89 55 28          	mov    %rdx,0x28(%rbp)
  403390:	48 b8 69 6e 74 61 62 	movabs $0x20656c6261746e69,%rax
  403397:	6c 65 20 
  40339a:	48 ba 63 68 61 72 61 	movabs $0x6574636172616863,%rdx
  4033a1:	63 74 65 
  4033a4:	48 89 45 30          	mov    %rax,0x30(%rbp)
  4033a8:	48 89 55 38          	mov    %rdx,0x38(%rbp)
  4033ac:	66 c7 45 40 72 2e    	movw   $0x2e72,0x40(%rbp)
  4033b2:	c6 45 42 00          	movb   $0x0,0x42(%rbp)
  4033b6:	89 df                	mov    %ebx,%edi
  4033b8:	e8 43 df ff ff       	callq  401300 <close@plt>
  4033bd:	b8 ff ff ff ff       	mov    $0xffffffff,%eax
  4033c2:	e9 af fd ff ff       	jmpq   403176 <submitr+0x2fd>
  4033c7:	48 b8 45 72 72 6f 72 	movabs $0x43203a726f727245,%rax
  4033ce:	3a 20 43 
  4033d1:	48 ba 6c 69 65 6e 74 	movabs $0x6e7520746e65696c,%rdx
  4033d8:	20 75 6e 
  4033db:	48 89 45 00          	mov    %rax,0x0(%rbp)
  4033df:	48 89 55 08          	mov    %rdx,0x8(%rbp)
  4033e3:	48 b8 61 62 6c 65 20 	movabs $0x206f7420656c6261,%rax
  4033ea:	74 6f 20 
  4033ed:	48 ba 77 72 69 74 65 	movabs $0x6f74206574697277,%rdx
  4033f4:	20 74 6f 
  4033f7:	48 89 45 10          	mov    %rax,0x10(%rbp)
  4033fb:	48 89 55 18          	mov    %rdx,0x18(%rbp)
  4033ff:	48 b8 20 74 68 65 20 	movabs $0x7475412065687420,%rax
  403406:	41 75 74 
  403409:	48 ba 6f 6c 61 62 20 	movabs $0x7265732062616c6f,%rdx
  403410:	73 65 72 
  403413:	48 89 45 20          	mov    %rax,0x20(%rbp)
  403417:	48 89 55 28          	mov    %rdx,0x28(%rbp)
  40341b:	c7 45 30 76 65 72 00 	movl   $0x726576,0x30(%rbp)
  403422:	89 df                	mov    %ebx,%edi
  403424:	e8 d7 de ff ff       	callq  401300 <close@plt>
  403429:	b8 ff ff ff ff       	mov    $0xffffffff,%eax
  40342e:	e9 43 fd ff ff       	jmpq   403176 <submitr+0x2fd>
  403433:	48 b8 45 72 72 6f 72 	movabs $0x43203a726f727245,%rax
  40343a:	3a 20 43 
  40343d:	48 ba 6c 69 65 6e 74 	movabs $0x6e7520746e65696c,%rdx
  403444:	20 75 6e 
  403447:	48 89 45 00          	mov    %rax,0x0(%rbp)
  40344b:	48 89 55 08          	mov    %rdx,0x8(%rbp)
  40344f:	48 b8 61 62 6c 65 20 	movabs $0x206f7420656c6261,%rax
  403456:	74 6f 20 
  403459:	48 ba 72 65 61 64 20 	movabs $0x7269662064616572,%rdx
  403460:	66 69 72 
  403463:	48 89 45 10          	mov    %rax,0x10(%rbp)
  403467:	48 89 55 18          	mov    %rdx,0x18(%rbp)
  40346b:	48 b8 73 74 20 68 65 	movabs $0x6564616568207473,%rax
  403472:	61 64 65 
  403475:	48 ba 72 20 66 72 6f 	movabs $0x41206d6f72662072,%rdx
  40347c:	6d 20 41 
  40347f:	48 89 45 20          	mov    %rax,0x20(%rbp)
  403483:	48 89 55 28          	mov    %rdx,0x28(%rbp)
  403487:	48 b8 75 74 6f 6c 61 	movabs $0x732062616c6f7475,%rax
  40348e:	62 20 73 
  403491:	48 89 45 30          	mov    %rax,0x30(%rbp)
  403495:	c7 45 38 65 72 76 65 	movl   $0x65767265,0x38(%rbp)
  40349c:	66 c7 45 3c 72 00    	movw   $0x72,0x3c(%rbp)
  4034a2:	89 df                	mov    %ebx,%edi
  4034a4:	e8 57 de ff ff       	callq  401300 <close@plt>
  4034a9:	b8 ff ff ff ff       	mov    $0xffffffff,%eax
  4034ae:	e9 c3 fc ff ff       	jmpq   403176 <submitr+0x2fd>
  4034b3:	48 8d b4 24 50 20 00 	lea    0x2050(%rsp),%rsi
  4034ba:	00 
  4034bb:	48 8d 7c 24 40       	lea    0x40(%rsp),%rdi
  4034c0:	ba 00 20 00 00       	mov    $0x2000,%edx
  4034c5:	e8 fe f7 ff ff       	callq  402cc8 <rio_readlineb>
  4034ca:	48 85 c0             	test   %rax,%rax
  4034cd:	0f 8e 96 00 00 00    	jle    403569 <submitr+0x6f0>
  4034d3:	44 8b 44 24 2c       	mov    0x2c(%rsp),%r8d
  4034d8:	41 81 f8 c8 00 00 00 	cmp    $0xc8,%r8d
  4034df:	0f 85 05 01 00 00    	jne    4035ea <submitr+0x771>
  4034e5:	48 8d b4 24 50 20 00 	lea    0x2050(%rsp),%rsi
  4034ec:	00 
  4034ed:	48 89 ef             	mov    %rbp,%rdi
  4034f0:	e8 ab dd ff ff       	callq  4012a0 <strcpy@plt>
  4034f5:	89 df                	mov    %ebx,%edi
  4034f7:	e8 04 de ff ff       	callq  401300 <close@plt>
  4034fc:	b9 04 00 00 00       	mov    $0x4,%ecx
  403501:	48 8d 3d 45 13 00 00 	lea    0x1345(%rip),%rdi        # 40484d <trans_char+0xdd>
  403508:	48 89 ee             	mov    %rbp,%rsi
  40350b:	f3 a6                	repz cmpsb %es:(%rdi),%ds:(%rsi)
  40350d:	0f 97 c0             	seta   %al
  403510:	1c 00                	sbb    $0x0,%al
  403512:	0f be c0             	movsbl %al,%eax
  403515:	85 c0                	test   %eax,%eax
  403517:	0f 84 59 fc ff ff    	je     403176 <submitr+0x2fd>
  40351d:	b9 05 00 00 00       	mov    $0x5,%ecx
  403522:	48 8d 3d 28 13 00 00 	lea    0x1328(%rip),%rdi        # 404851 <trans_char+0xe1>
  403529:	48 89 ee             	mov    %rbp,%rsi
  40352c:	f3 a6                	repz cmpsb %es:(%rdi),%ds:(%rsi)
  40352e:	0f 97 c0             	seta   %al
  403531:	1c 00                	sbb    $0x0,%al
  403533:	0f be c0             	movsbl %al,%eax
  403536:	85 c0                	test   %eax,%eax
  403538:	0f 84 38 fc ff ff    	je     403176 <submitr+0x2fd>
  40353e:	b9 03 00 00 00       	mov    $0x3,%ecx
  403543:	48 8d 3d 0c 13 00 00 	lea    0x130c(%rip),%rdi        # 404856 <trans_char+0xe6>
  40354a:	48 89 ee             	mov    %rbp,%rsi
  40354d:	f3 a6                	repz cmpsb %es:(%rdi),%ds:(%rsi)
  40354f:	0f 97 c0             	seta   %al
  403552:	1c 00                	sbb    $0x0,%al
  403554:	0f be c0             	movsbl %al,%eax
  403557:	85 c0                	test   %eax,%eax
  403559:	0f 84 17 fc ff ff    	je     403176 <submitr+0x2fd>
  40355f:	b8 ff ff ff ff       	mov    $0xffffffff,%eax
  403564:	e9 0d fc ff ff       	jmpq   403176 <submitr+0x2fd>
  403569:	48 b8 45 72 72 6f 72 	movabs $0x43203a726f727245,%rax
  403570:	3a 20 43 
  403573:	48 ba 6c 69 65 6e 74 	movabs $0x6e7520746e65696c,%rdx
  40357a:	20 75 6e 
  40357d:	48 89 45 00          	mov    %rax,0x0(%rbp)
  403581:	48 89 55 08          	mov    %rdx,0x8(%rbp)
  403585:	48 b8 61 62 6c 65 20 	movabs $0x206f7420656c6261,%rax
  40358c:	74 6f 20 
  40358f:	48 ba 72 65 61 64 20 	movabs $0x6174732064616572,%rdx
  403596:	73 74 61 
  403599:	48 89 45 10          	mov    %rax,0x10(%rbp)
  40359d:	48 89 55 18          	mov    %rdx,0x18(%rbp)
  4035a1:	48 b8 74 75 73 20 6d 	movabs $0x7373656d20737574,%rax
  4035a8:	65 73 73 
  4035ab:	48 ba 61 67 65 20 66 	movabs $0x6d6f726620656761,%rdx
  4035b2:	72 6f 6d 
  4035b5:	48 89 45 20          	mov    %rax,0x20(%rbp)
  4035b9:	48 89 55 28          	mov    %rdx,0x28(%rbp)
  4035bd:	48 b8 20 41 75 74 6f 	movabs $0x62616c6f74754120,%rax
  4035c4:	6c 61 62 
  4035c7:	48 ba 20 73 65 72 76 	movabs $0x72657672657320,%rdx
  4035ce:	65 72 00 
  4035d1:	48 89 45 30          	mov    %rax,0x30(%rbp)
  4035d5:	48 89 55 38          	mov    %rdx,0x38(%rbp)
  4035d9:	89 df                	mov    %ebx,%edi
  4035db:	e8 20 dd ff ff       	callq  401300 <close@plt>
  4035e0:	b8 ff ff ff ff       	mov    $0xffffffff,%eax
  4035e5:	e9 8c fb ff ff       	jmpq   403176 <submitr+0x2fd>
  4035ea:	4c 8d 8c 24 50 80 00 	lea    0x8050(%rsp),%r9
  4035f1:	00 
  4035f2:	48 8d 0d 0f 12 00 00 	lea    0x120f(%rip),%rcx        # 404808 <trans_char+0x98>
  4035f9:	48 c7 c2 ff ff ff ff 	mov    $0xffffffffffffffff,%rdx
  403600:	be 01 00 00 00       	mov    $0x1,%esi
  403605:	48 89 ef             	mov    %rbp,%rdi
  403608:	b8 00 00 00 00       	mov    $0x0,%eax
  40360d:	e8 3e de ff ff       	callq  401450 <__sprintf_chk@plt>
  403612:	89 df                	mov    %ebx,%edi
  403614:	e8 e7 dc ff ff       	callq  401300 <close@plt>
  403619:	b8 ff ff ff ff       	mov    $0xffffffff,%eax
  40361e:	e9 53 fb ff ff       	jmpq   403176 <submitr+0x2fd>
  403623:	e8 47 f3 ff ff       	callq  40296f <__stack_chk_fail>

0000000000403628 <init_timeout>:
  403628:	f3 0f 1e fa          	endbr64 
  40362c:	85 ff                	test   %edi,%edi
  40362e:	74 26                	je     403656 <init_timeout+0x2e>
  403630:	53                   	push   %rbx
  403631:	89 fb                	mov    %edi,%ebx
  403633:	78 1a                	js     40364f <init_timeout+0x27>
  403635:	48 8d 35 71 f5 ff ff 	lea    -0xa8f(%rip),%rsi        # 402bad <sigalrm_handler>
  40363c:	bf 0e 00 00 00       	mov    $0xe,%edi
  403641:	e8 ea dc ff ff       	callq  401330 <signal@plt>
  403646:	89 df                	mov    %ebx,%edi
  403648:	e8 a3 dc ff ff       	callq  4012f0 <alarm@plt>
  40364d:	5b                   	pop    %rbx
  40364e:	c3                   	retq   
  40364f:	bb 00 00 00 00       	mov    $0x0,%ebx
  403654:	eb df                	jmp    403635 <init_timeout+0xd>
  403656:	c3                   	retq   

0000000000403657 <init_driver>:
  403657:	f3 0f 1e fa          	endbr64 
  40365b:	41 54                	push   %r12
  40365d:	55                   	push   %rbp
  40365e:	53                   	push   %rbx
  40365f:	48 83 ec 20          	sub    $0x20,%rsp
  403663:	48 89 fd             	mov    %rdi,%rbp
  403666:	64 48 8b 04 25 28 00 	mov    %fs:0x28,%rax
  40366d:	00 00 
  40366f:	48 89 44 24 18       	mov    %rax,0x18(%rsp)
  403674:	31 c0                	xor    %eax,%eax
  403676:	be 01 00 00 00       	mov    $0x1,%esi
  40367b:	bf 0d 00 00 00       	mov    $0xd,%edi
  403680:	e8 ab dc ff ff       	callq  401330 <signal@plt>
  403685:	be 01 00 00 00       	mov    $0x1,%esi
  40368a:	bf 1d 00 00 00       	mov    $0x1d,%edi
  40368f:	e8 9c dc ff ff       	callq  401330 <signal@plt>
  403694:	be 01 00 00 00       	mov    $0x1,%esi
  403699:	bf 1d 00 00 00       	mov    $0x1d,%edi
  40369e:	e8 8d dc ff ff       	callq  401330 <signal@plt>
  4036a3:	ba 00 00 00 00       	mov    $0x0,%edx
  4036a8:	be 01 00 00 00       	mov    $0x1,%esi
  4036ad:	bf 02 00 00 00       	mov    $0x2,%edi
  4036b2:	e8 a9 dd ff ff       	callq  401460 <socket@plt>
  4036b7:	85 c0                	test   %eax,%eax
  4036b9:	0f 88 9c 00 00 00    	js     40375b <init_driver+0x104>
  4036bf:	89 c3                	mov    %eax,%ebx
  4036c1:	48 8d 3d 91 11 00 00 	lea    0x1191(%rip),%rdi        # 404859 <trans_char+0xe9>
  4036c8:	e8 73 dc ff ff       	callq  401340 <gethostbyname@plt>
  4036cd:	48 85 c0             	test   %rax,%rax
  4036d0:	0f 84 d1 00 00 00    	je     4037a7 <init_driver+0x150>
  4036d6:	49 89 e4             	mov    %rsp,%r12
  4036d9:	48 c7 04 24 00 00 00 	movq   $0x0,(%rsp)
  4036e0:	00 
  4036e1:	48 c7 44 24 08 00 00 	movq   $0x0,0x8(%rsp)
  4036e8:	00 00 
  4036ea:	66 c7 04 24 02 00    	movw   $0x2,(%rsp)
  4036f0:	48 63 50 14          	movslq 0x14(%rax),%rdx
  4036f4:	48 8b 40 18          	mov    0x18(%rax),%rax
  4036f8:	48 8b 30             	mov    (%rax),%rsi
  4036fb:	48 8d 7c 24 04       	lea    0x4(%rsp),%rdi
  403700:	b9 0c 00 00 00       	mov    $0xc,%ecx
  403705:	e8 46 dc ff ff       	callq  401350 <__memmove_chk@plt>
  40370a:	66 c7 44 24 02 30 39 	movw   $0x3930,0x2(%rsp)
  403711:	ba 10 00 00 00       	mov    $0x10,%edx
  403716:	4c 89 e6             	mov    %r12,%rsi
  403719:	89 df                	mov    %ebx,%edi
  40371b:	e8 00 dd ff ff       	callq  401420 <connect@plt>
  403720:	85 c0                	test   %eax,%eax
  403722:	0f 88 e7 00 00 00    	js     40380f <init_driver+0x1b8>
  403728:	89 df                	mov    %ebx,%edi
  40372a:	e8 d1 db ff ff       	callq  401300 <close@plt>
  40372f:	66 c7 45 00 4f 4b    	movw   $0x4b4f,0x0(%rbp)
  403735:	c6 45 02 00          	movb   $0x0,0x2(%rbp)
  403739:	b8 00 00 00 00       	mov    $0x0,%eax
  40373e:	48 8b 4c 24 18       	mov    0x18(%rsp),%rcx
  403743:	64 48 33 0c 25 28 00 	xor    %fs:0x28,%rcx
  40374a:	00 00 
  40374c:	0f 85 10 01 00 00    	jne    403862 <init_driver+0x20b>
  403752:	48 83 c4 20          	add    $0x20,%rsp
  403756:	5b                   	pop    %rbx
  403757:	5d                   	pop    %rbp
  403758:	41 5c                	pop    %r12
  40375a:	c3                   	retq   
  40375b:	48 b8 45 72 72 6f 72 	movabs $0x43203a726f727245,%rax
  403762:	3a 20 43 
  403765:	48 ba 6c 69 65 6e 74 	movabs $0x6e7520746e65696c,%rdx
  40376c:	20 75 6e 
  40376f:	48 89 45 00          	mov    %rax,0x0(%rbp)
  403773:	48 89 55 08          	mov    %rdx,0x8(%rbp)
  403777:	48 b8 61 62 6c 65 20 	movabs $0x206f7420656c6261,%rax
  40377e:	74 6f 20 
  403781:	48 ba 63 72 65 61 74 	movabs $0x7320657461657263,%rdx
  403788:	65 20 73 
  40378b:	48 89 45 10          	mov    %rax,0x10(%rbp)
  40378f:	48 89 55 18          	mov    %rdx,0x18(%rbp)
  403793:	c7 45 20 6f 63 6b 65 	movl   $0x656b636f,0x20(%rbp)
  40379a:	66 c7 45 24 74 00    	movw   $0x74,0x24(%rbp)
  4037a0:	b8 ff ff ff ff       	mov    $0xffffffff,%eax
  4037a5:	eb 97                	jmp    40373e <init_driver+0xe7>
  4037a7:	48 b8 45 72 72 6f 72 	movabs $0x44203a726f727245,%rax
  4037ae:	3a 20 44 
  4037b1:	48 ba 4e 53 20 69 73 	movabs $0x6e7520736920534e,%rdx
  4037b8:	20 75 6e 
  4037bb:	48 89 45 00          	mov    %rax,0x0(%rbp)
  4037bf:	48 89 55 08          	mov    %rdx,0x8(%rbp)
  4037c3:	48 b8 61 62 6c 65 20 	movabs $0x206f7420656c6261,%rax
  4037ca:	74 6f 20 
  4037cd:	48 ba 72 65 73 6f 6c 	movabs $0x2065766c6f736572,%rdx
  4037d4:	76 65 20 
  4037d7:	48 89 45 10          	mov    %rax,0x10(%rbp)
  4037db:	48 89 55 18          	mov    %rdx,0x18(%rbp)
  4037df:	48 b8 73 65 72 76 65 	movabs $0x6120726576726573,%rax
  4037e6:	72 20 61 
  4037e9:	48 89 45 20          	mov    %rax,0x20(%rbp)
  4037ed:	c7 45 28 64 64 72 65 	movl   $0x65726464,0x28(%rbp)
  4037f4:	66 c7 45 2c 73 73    	movw   $0x7373,0x2c(%rbp)
  4037fa:	c6 45 2e 00          	movb   $0x0,0x2e(%rbp)
  4037fe:	89 df                	mov    %ebx,%edi
  403800:	e8 fb da ff ff       	callq  401300 <close@plt>
  403805:	b8 ff ff ff ff       	mov    $0xffffffff,%eax
  40380a:	e9 2f ff ff ff       	jmpq   40373e <init_driver+0xe7>
  40380f:	48 b8 45 72 72 6f 72 	movabs $0x55203a726f727245,%rax
  403816:	3a 20 55 
  403819:	48 ba 6e 61 62 6c 65 	movabs $0x6f7420656c62616e,%rdx
  403820:	20 74 6f 
  403823:	48 89 45 00          	mov    %rax,0x0(%rbp)
  403827:	48 89 55 08          	mov    %rdx,0x8(%rbp)
  40382b:	48 b8 20 63 6f 6e 6e 	movabs $0x7463656e6e6f6320,%rax
  403832:	65 63 74 
  403835:	48 ba 20 74 6f 20 73 	movabs $0x76726573206f7420,%rdx
  40383c:	65 72 76 
  40383f:	48 89 45 10          	mov    %rax,0x10(%rbp)
  403843:	48 89 55 18          	mov    %rdx,0x18(%rbp)
  403847:	66 c7 45 20 65 72    	movw   $0x7265,0x20(%rbp)
  40384d:	c6 45 22 00          	movb   $0x0,0x22(%rbp)
  403851:	89 df                	mov    %ebx,%edi
  403853:	e8 a8 da ff ff       	callq  401300 <close@plt>
  403858:	b8 ff ff ff ff       	mov    $0xffffffff,%eax
  40385d:	e9 dc fe ff ff       	jmpq   40373e <init_driver+0xe7>
  403862:	e8 08 f1 ff ff       	callq  40296f <__stack_chk_fail>

0000000000403867 <driver_post>:
  403867:	f3 0f 1e fa          	endbr64 
  40386b:	53                   	push   %rbx
  40386c:	4c 89 cb             	mov    %r9,%rbx
  40386f:	45 85 c0             	test   %r8d,%r8d
  403872:	75 18                	jne    40388c <driver_post+0x25>
  403874:	48 85 ff             	test   %rdi,%rdi
  403877:	74 05                	je     40387e <driver_post+0x17>
  403879:	80 3f 00             	cmpb   $0x0,(%rdi)
  40387c:	75 37                	jne    4038b5 <driver_post+0x4e>
  40387e:	66 c7 03 4f 4b       	movw   $0x4b4f,(%rbx)
  403883:	c6 43 02 00          	movb   $0x0,0x2(%rbx)
  403887:	44 89 c0             	mov    %r8d,%eax
  40388a:	5b                   	pop    %rbx
  40388b:	c3                   	retq   
  40388c:	48 89 ca             	mov    %rcx,%rdx
  40388f:	48 8d 35 d3 0f 00 00 	lea    0xfd3(%rip),%rsi        # 404869 <trans_char+0xf9>
  403896:	bf 01 00 00 00       	mov    $0x1,%edi
  40389b:	b8 00 00 00 00       	mov    $0x0,%eax
  4038a0:	e8 1b db ff ff       	callq  4013c0 <__printf_chk@plt>
  4038a5:	66 c7 03 4f 4b       	movw   $0x4b4f,(%rbx)
  4038aa:	c6 43 02 00          	movb   $0x0,0x2(%rbx)
  4038ae:	b8 00 00 00 00       	mov    $0x0,%eax
  4038b3:	eb d5                	jmp    40388a <driver_post+0x23>
  4038b5:	48 83 ec 08          	sub    $0x8,%rsp
  4038b9:	41 51                	push   %r9
  4038bb:	49 89 c9             	mov    %rcx,%r9
  4038be:	49 89 d0             	mov    %rdx,%r8
  4038c1:	48 89 f9             	mov    %rdi,%rcx
  4038c4:	48 89 f2             	mov    %rsi,%rdx
  4038c7:	be 39 30 00 00       	mov    $0x3039,%esi
  4038cc:	48 8d 3d 86 0f 00 00 	lea    0xf86(%rip),%rdi        # 404859 <trans_char+0xe9>
  4038d3:	e8 a1 f5 ff ff       	callq  402e79 <submitr>
  4038d8:	48 83 c4 10          	add    $0x10,%rsp
  4038dc:	eb ac                	jmp    40388a <driver_post+0x23>

00000000004038de <check>:
  4038de:	f3 0f 1e fa          	endbr64 
  4038e2:	89 f8                	mov    %edi,%eax
  4038e4:	c1 e8 1c             	shr    $0x1c,%eax
  4038e7:	74 1d                	je     403906 <check+0x28>
  4038e9:	b9 00 00 00 00       	mov    $0x0,%ecx
  4038ee:	83 f9 1f             	cmp    $0x1f,%ecx
  4038f1:	7f 0d                	jg     403900 <check+0x22>
  4038f3:	89 f8                	mov    %edi,%eax
  4038f5:	d3 e8                	shr    %cl,%eax
  4038f7:	3c 0a                	cmp    $0xa,%al
  4038f9:	74 11                	je     40390c <check+0x2e>
  4038fb:	83 c1 08             	add    $0x8,%ecx
  4038fe:	eb ee                	jmp    4038ee <check+0x10>
  403900:	b8 01 00 00 00       	mov    $0x1,%eax
  403905:	c3                   	retq   
  403906:	b8 00 00 00 00       	mov    $0x0,%eax
  40390b:	c3                   	retq   
  40390c:	b8 00 00 00 00       	mov    $0x0,%eax
  403911:	c3                   	retq   

0000000000403912 <gencookie>:
  403912:	f3 0f 1e fa          	endbr64 
  403916:	53                   	push   %rbx
  403917:	83 c7 01             	add    $0x1,%edi
  40391a:	e8 51 d9 ff ff       	callq  401270 <srandom@plt>
  40391f:	e8 6c da ff ff       	callq  401390 <random@plt>
  403924:	48 89 c7             	mov    %rax,%rdi
  403927:	89 c3                	mov    %eax,%ebx
  403929:	e8 b0 ff ff ff       	callq  4038de <check>
  40392e:	85 c0                	test   %eax,%eax
  403930:	74 ed                	je     40391f <gencookie+0xd>
  403932:	89 d8                	mov    %ebx,%eax
  403934:	5b                   	pop    %rbx
  403935:	c3                   	retq   
  403936:	66 2e 0f 1f 84 00 00 	nopw   %cs:0x0(%rax,%rax,1)
  40393d:	00 00 00 

0000000000403940 <__libc_csu_init>:
  403940:	f3 0f 1e fa          	endbr64 
  403944:	41 57                	push   %r15
  403946:	4c 8d 3d c3 34 00 00 	lea    0x34c3(%rip),%r15        # 406e10 <__frame_dummy_init_array_entry>
  40394d:	41 56                	push   %r14
  40394f:	49 89 d6             	mov    %rdx,%r14
  403952:	41 55                	push   %r13
  403954:	49 89 f5             	mov    %rsi,%r13
  403957:	41 54                	push   %r12
  403959:	41 89 fc             	mov    %edi,%r12d
  40395c:	55                   	push   %rbp
  40395d:	48 8d 2d b4 34 00 00 	lea    0x34b4(%rip),%rbp        # 406e18 <__init_array_end>
  403964:	53                   	push   %rbx
  403965:	4c 29 fd             	sub    %r15,%rbp
  403968:	48 83 ec 08          	sub    $0x8,%rsp
  40396c:	e8 8f d6 ff ff       	callq  401000 <_init>
  403971:	48 c1 fd 03          	sar    $0x3,%rbp
  403975:	74 1f                	je     403996 <__libc_csu_init+0x56>
  403977:	31 db                	xor    %ebx,%ebx
  403979:	0f 1f 80 00 00 00 00 	nopl   0x0(%rax)
  403980:	4c 89 f2             	mov    %r14,%rdx
  403983:	4c 89 ee             	mov    %r13,%rsi
  403986:	44 89 e7             	mov    %r12d,%edi
  403989:	41 ff 14 df          	callq  *(%r15,%rbx,8)
  40398d:	48 83 c3 01          	add    $0x1,%rbx
  403991:	48 39 dd             	cmp    %rbx,%rbp
  403994:	75 ea                	jne    403980 <__libc_csu_init+0x40>
  403996:	48 83 c4 08          	add    $0x8,%rsp
  40399a:	5b                   	pop    %rbx
  40399b:	5d                   	pop    %rbp
  40399c:	41 5c                	pop    %r12
  40399e:	41 5d                	pop    %r13
  4039a0:	41 5e                	pop    %r14
  4039a2:	41 5f                	pop    %r15
  4039a4:	c3                   	retq   
  4039a5:	66 66 2e 0f 1f 84 00 	data16 nopw %cs:0x0(%rax,%rax,1)
  4039ac:	00 00 00 00 

00000000004039b0 <__libc_csu_fini>:
  4039b0:	f3 0f 1e fa          	endbr64 
  4039b4:	c3                   	retq   

Disassembly of section .fini:

00000000004039b8 <_fini>:
  4039b8:	f3 0f 1e fa          	endbr64 
  4039bc:	48 83 ec 08          	sub    $0x8,%rsp
  4039c0:	48 83 c4 08          	add    $0x8,%rsp
  4039c4:	c3                   	retq   
